(dp0
VElvis Presley was born on this day in 1935 https://t.co/Rxwo9wkq4D https://t.co/ETRzPXnT6z
p1
I685473149291479040
sVFirst on CNN: @tommychong wants @BernieSanders for next "commander in kush" https://t.co/MT93Spulc2 https://t.co/2G53MqV5DS
p2
I693160939802214400
sVWe have some bad news, Friends fans. The whole cast won't be reuniting in February: https://t.co/n2TJy1jTKk https://t.co/dMnrFXvscN
p3
I687734662249246724
sVPoland says cannot accept migrants under EU quotas after Paris attacks. More updates: https://t.co/IQnCQRYNlG https://t.co/sLdgm2k29x
p4
I665498651742085124
sVSomeone spray painted a penis on a \u20ac1.9m Bugatti Veyron http://t.co/W5atv2hkyD http://t.co/yjNZrtvCdc
p5
I519935535083565056
sVDozens of people were killed in car bomb, 2 suicide bombings near Damascus, Syria, state media says. https://t.co/CrbkUQD7XG
p6
I693769968199061504
sVNeurotic Woman Turns To Neurotic Friends For Support https://t.co/yhftR0Zw0u https://t.co/dRj2oSGxs4
p7
I692357775859564544
sVKentucky leads Kansas 46-40 at the half.\u000a\u000aTyler Ulis has scored or assisted on 11 of the Wildcats' 17 field goals. https://t.co/KPkJJ62vuP
p8
I693600369281253376
sV.@selenagomez was on the prowl for hot guys at the #InStyleGlobes after-party: https://t.co/EQbtLn3cjZ https://t.co/aEDTBswizi
p9
I686701278785843200
sVJ.K. Rowling is working on an 8th Harry Potter book.
p10
I376982539132366848
sVNorth Korea says it has arrested a US student on charges of committing a "hostile act" https://t.co/tIvC2cbkLR
p11
I690431187916099584
sVLatest so far on shot down Malaysia Airlines plane #MH17 http://t.co/duNaPEjFZp http://t.co/3dm3yEqfi9
p12
I489802446001434625
sVPhotos of the Day https://t.co/kkeAJgr1uO https://t.co/N4Mk3FZsVX
p13
I684488313512800256
sVStudy: 90% Of Workplace Injuries Caused By Bare-Knuckle Boxing https://t.co/D74A8JY60e https://t.co/T3ehLsm08D
p14
I693916809125351425
sV\u2018Banksy\u2019 Instagram tribute to #CharlieHebdo victims not posted by artist http://t.co/EKlScFGWVu (Pic: Lucille Clerc) http://t.co/ZYEBaU8YUQ
p15
I553136604882014208
sVThe Las Vegas Raiders?\u000a\u000ahttps://t.co/KQWdoHifrv https://t.co/nAl45pwzoH
p16
I693098795022725120
sVHow to say \u2018I love you\u2019:\u000a1.) Have my fries
p17
I560207034545889281
sV\u2728 Happy #GossipGirlDay \u2728 https://t.co/UxCDz5O2Pz
p18
I692098463262216192
sVOfficials: Boko Haram burns kids alive in Nigeria, kill 86 people: https://t.co/KVS8jJCs8a
p19
I693866093123915776
sVA photo of black nurses saving the life of a KKK member. http://t.co/wirhDCt4
p20
I295944137948151809
sVFBI 'SUPER PISSED OFF' AT WHITE HOUSE MEDDLING... https://t.co/tb5iwVt1bj
p21
I693456340790804480
sVTrump on supporters: "I could stand in the middle of 5th Ave. and shoot somebody and I wouldn't lose any voters." https://t.co/vm1bnooAwb
p22
I690985215691354112
sVSiege over at Burkina Faso hotel taken by suspected Islamist gunmen, but reports say nearby hotel attacked https://t.co/Igqcw1iT36
p23
I688281442162352128
sVNOW: 12-year-old conservative CJ Pearson defends Giuliani's comments on Obama and his Facebook gets shut down! http://t.co/6DsmW9qwuT
p24
I572002458647412736
sV"As FDR once said: 'There is nothing so American as our national parks'" \u2014@POTUS #NPS100 #FindYourPark https://t.co/mguWAY8Ovm
p25
I767094580634202112
sVMALIA OBAMA WEARS T SHIRT OF AN ANTI WHITE ANTI COP RAP GROUP. #NYPD http://t.co/2fmLyvlIUT the family that agitates together stays together
p26
I552677176873455616
sVFirst photo from the Malaysia Airlines crash site in Ukraine. via @Reuters http://t.co/hVFdgJGaBG #MH17 http://t.co/d7fPr0YSgE
p27
I489816746405007360
sVA conversation with X Japan\u2019s Yoshiki and documentarian Stephen Kijak https://t.co/WZPohXYKgQ https://t.co/0urExAcC4f
p28
I693921710383337472
sVLIVE: Dubai hotel on fire near the Burj Khalifa tower. https://t.co/n98E2nGefm https://t.co/T3o8WK1kBE
p29
I682629960826224646
sVICYMI: Mammoth bones from the Ice Age were unearthed at Oregon State's football stadium. https://t.co/KpGhgLNSvU https://t.co/YXO5h3x3Ye
p30
I692581635594694658
sVAfter 40-year ban, U.S. starts exporting crude oil https://t.co/6TfD7aGHN2 https://t.co/bMoPLgHiTD
p31
I693118410444636161
sV"talking angela gets ur personal info"\u000a"he's a kidnapper"\u000a"he watches u through ur camera" http://t.co/vId65I4WMQ
p32
I436074888638763008
sVConvicted killer Levi Bellfield finally admits to murder of schoolgirl Milly Dowler in 2002, police say https://t.co/qHtw57DiwA
p33
I692405195796529152
sV@jjauthor @Fingersflying @peddoc63 @ChuckNellis @WayneBogda \u000aWhat happens to witnesses! \u000a\u000ahttp://t.co/BFc2ucgVX3 http://t.co/A7vbDOSIJN
p34
I539254751343681536
sVStill sobbing over @OneDirection's #1DHistoryVideo, hbu? https://t.co/Jr1nBVUGD5 https://t.co/Lz9whN4XSa
p35
I693533469922693120
sVWhy is my grandpa tryin to tell me Leonardo Dicapro is gonna play Martin Luther King in a movie.. LOL!
p36
I455525437351800832
sVBen Simmons could be 1st SEC player since Shaq to average a 20-10.\u000a\u000aT-minus 2 hours till he faces No. 1 OU on ESPN. https://t.co/juTPLZgEwa
p37
I693524179597955072
sV36 best quotes from Davos 2016 https://t.co/q47LORpKQO https://t.co/y62Ug8sjEa
p38
I690915657106526208
sVDorm Room Decorated With Empty Bottles Of Adderall https://t.co/A9Cav122bH
p39
I692792765852286977
sVWe are running out of chocolate, warns world's largest chocolate manufacturer\u000ahttp://t.co/8zL3r8VdOh http://t.co/V3uQYvBRaX
p40
I534337548680978432
sVSources: Calvin Johnson told Detroit Lions he plans on retiring from the NFL. https://t.co/YpbxDfPWZj https://t.co/dRNihwCglU
p41
I693925198630821889
sVBREAKING: Gill Rosenberg (31) from Tel Aviv former IDF soldier was captured by ISIS after going to Iraq to join Kurds &amp; fight ISIS - Ch 2
p42
I539052152602107904
sVMozambique death toll rises to 72 from beer believed to have been poisoned with crocodile bile: http://t.co/r09mInCdDb
p43
I554979642210549760
sVWatch @POTUS and @FLOTUS share their favorite Olympic memories\u2014and cheer on #TeamUSA: https://t.co/p2YKF9yZhl https://t.co/cIOY5K7KAj
p44
I762775964224847872
sVFederal Reserve declines to raise key interest rate, citing slowing economic growth. https://t.co/exYo6jQ7ZU. https://t.co/dtAK5ywgpS
p45
I692440373449396224
sVICYMI: Tom Brady penned a heartfelt thank-you note to Patriots fans. https://t.co/5qiXj7rwKW https://t.co/PqPenh6PyP
p46
I692709993573789701
sVOPRAH: \u201cBILL COSBY DRUGGED &amp; TRIED TO RAPE ME\u201d \U0001f633\U0001f62b\U0001f631 https://t.co/ZsQuDNw8bb
p47
I547101266313089024
sVFACT: For the first time ever, more than 90% of Americans have health coverage. #ACAWorks https://t.co/N0Cj2PSYx7
p48
I690954487322796032
sVReport: More American Fifth-Graders Taking Gap Year To Unwind Before Middle School https://t.co/pUfVy5iosD https://t.co/QUbYYmcVmW
p49
I766989078294306816
sVHalftime in Rio.\u000a\u000aUSA: 52\u000aSerbia: 29\u000aKevin Durant: 24\u000a\u000aWe see you, KD. https://t.co/xpbib6QFjZ
p50
I767444114229059584
sV.@tedcruz: "Bernie is a socialist and he admits it. Hillary is a socialist and she pretends she's not." @TeamCavuto\u000ahttps://t.co/WFx3m5GFhz
p51
I693484841011060737
sVMexico security forces hunting 43 missing students after clashes with police find mass grave http://t.co/SXPLzCjp8C
p52
I518830518792892416
sVIf Betty White dies today and steals Joan's thunder I will unleash a reign of terror upon this nation the likes of which u have never seen!!
p53
I507634536176300032
sVMan arrested with two firearms at entrance to hotel at Disneyland Paris, French media report https://t.co/IAqaYU3esY
p54
I692742353736568833
sVThis is the surface-to-air missile Ukraine says shot down Malaysia Airlines plane http://t.co/8zlp4cZutk http://t.co/XHSlJJj7dL
p55
I489833932813516800
sV\u201c@ComplexMag: Someone spray painted a penis on a $2.4 million Bugatti Veyron: http://t.co/diI7yZViFi http://t.co/P50vc8xY04\u201d legendary
p56
I519929168864497664
sVBREAKING: 15.1 foot tsunami reported in Coquimbo. #earthquake #tsunami
p57
I644321231618076673
sVQuite a design flaw RT @NYMag: If you sit with your iPhone 6 Plus in your pocket, it bends beyond repair http://t.co/oLjJtH6yZ3
p58
I514535408126795776
sVTHREE OF FIVE DETAINEES SWAPPED ARE NOW ISIS LEADERS claims http://t.co/9YgFUHfTO9 http://t.co/vVYeaH15ck http://t.co/uNq38Reay6
p59
I513922322915282945
sV#Selena's killer &amp; former fan club president will NOT be released early from prison! http://t.co/s3VlpM245B http://t.co/gPVYkBSTgN
p60
I542423103834296323
sVi can't believe macklemore has joined isis. what a pity #MacklemoreJoinedISIS
p61
I568568737621630977
sVWater leaks at Fukushima could contaminate entire Pacific Ocean http://t.co/cHeAMMChDN
p62
I365497016098369536
sVExplorer Henry Worsley dies after suffering exhaustion and dehydration during solo Antarctic crossing attempt https://t.co/b76cr5FLve
p63
I691564354567798784
sV@Legendgary #HitEmUp! Bad Boy C.E.O. @iamdiddy Arrested in Connection With Murder of Tupac Shakur: ... http://t.co/VGoXQabWUE @Wethewest
p64
I513015596879867904
sVKate Winslet and Leonardo Dicaprio #SAGAwards embrace, WE REPEAT Kate and Leo SAG Awards embrace. \u2764 https://t.co/XxplpsGGTP
p65
I693629498177253376
sVA photo of black nurses saving the life of a KKK member. http://t.co/dtLAKFrb8w
p66
I319166636902998016
sVErm, Will, that's not quite what we asked. Let us know where you stand on #Batman and #Superman with '#EmpireBvS'. https://t.co/jgRTU5mDvp
p67
I692854695262445568
sVWIN: Macy's stops stocking SodaStream http://t.co/KYABAzaE4T #BDS #Palestine @aicnews http://t.co/8oW3VuZY4g
p68
I524191650420367360
sVCops swarm #7thHeaven star Stephen Collins' home after suicide report http://t.co/FQOnS8vLvw http://t.co/iPWbjryowa
p69
I519921456730607616
sVBoss Wants Friendly, Relaxed Company Culture In Place By Friday https://t.co/Iodibt6hdp https://t.co/YOSet0rm0Z
p70
I691656866972209152
sVLETS START BY BOYCOTTING KOCH INDUSTIERS THEY PAID FOR GEORGE ZIMMERMAN LEGAL FEES #JusticeForTrayvon #JurorB37 http://t.co/aUCK4jPy12
p71
I357300409292959744
sV14 things successful people do before breakfast https://t.co/Z8BG1Q3h03 https://t.co/PBeyZuF5OK
p72
I661184793342775296
sVIt's official: #GilmoreGirls is coming back! Get the details on the Netflix revival: https://t.co/2IChFtg6HP
p73
I693204483501887488
sV"Our children should not have to be worried about the water that they're drinking" \u2014@POTUS on the situation in Flint https://t.co/EgL8ObPuPC
p74
I690296550803636224
sVThe President of Argentina Adopted a Jewish Teenager to Stop Him from Becoming a Werewolf http://t.co/YVDh1ioMjB http://t.co/mGjCqUTlng
p75
I550038665653542913
sVAs of January 12th, Microsoft will no longer support Internet Explorer 8, 9 or 10. https://t.co/HlEXZKdKGv
p76
I684878165714563072
sVOoooh my, D-Rose. \u000a\u000ahttps://t.co/YDQY2gZtJH
p77
I693068611951300608
sVBETTY WHITE NEVER DIE SHE MY LADY STILL I NEVER HAVE THE SEX WITH HER
p78
I507557659206516736
sV.@CornelWest joins @BernieSanders for rally in Davenport, Iowa. Watch Live: https://t.co/KsuPXYHO20 https://t.co/pmCaodH5L3
p79
I693217698482933760
sVNo baes allowed: a Chick-fil-A manager bans 22 hip words http://t.co/VyorfNyy76 http://t.co/AYwZguBIvv
p80
I532199717594497024
sVObama Files Federal Charges Against George Zimmerman Following Acquittal in Shooting Murder of Trayvon Martin |  http://t.co/DdlC39Q2uT
p81
I356268980211687424
sVWTF? Community agitator Obama secretly met w/ Ferguson activists &amp; told them to stay on course http://t.co/umaYyUyUFN http://t.co/CS9zgTN1eW
p82
I534543768653807618
sV.@realDonaldTrump's son, Eric, slams @HillaryClinton &amp; @POTUS for their response to flooding in #Louisiana. https://t.co/aSD5VWzRph
p83
I767737100347191297
sVCurrent passenger breakdown by nationality - via @theage @smh #MH17 http://t.co/MjswmQhwI8 http://t.co/1bP78hLPBH
p84
I489970164469751808
sVHouse for sale. Asking price? Super Bowl 50 tickets. \u000a\u000aWell-played, Steelers fan. https://t.co/wdFYOQRBQX https://t.co/EadjiYT6fO
p85
I692736398462300162
sVBoko Haram burns kids alive in northeast Nigeria, witness says https://t.co/G28Yz1e5G4
p86
I693830499047989248
sVUK mother Tareena Shakil, who took son to Syria, guilty of joining so-called Islamic State and encouraging terror https://t.co/K365xjvsty
p87
I693102023764492288
sV#Ceres captured by Dawn spacecraft. Check out those bright spots! Video: https://t.co/8ck4EOKHgM https://t.co/K0RYRUmCJn
p88
I674713782778654721
sVAlan Rickman's goodbye letter to Harry Potter is just perfect: https://t.co/syDXHepLLy https://t.co/jqE4HUejQk
p89
I687674548712505346
sVJust heart breaking. French police commissioner commits suicide after meeting CharlieHebdo bereaved. http://t.co/M6UF2c3a0r
p90
I554655549896159233
sVCDC Whistleblower Exposes Ebola Vaccinations Containing RFID Chips | National Report http://t.co/OWnRre1orv via @wpusta
p91
I525711899359318016
sVColombian government and left-wing Farc rebel movement agree ceasefire to end decades-long conflict https://t.co/sWJ65Van85
p92
I689529955294777344
sVBrandon Marshall visits and offers advice, support to brother of fallen hero Zaevion Dobson: https://t.co/Ln1rbAxg3a https://t.co/D6i4oLnpOu
p93
I693204708933160960
sVQuebec City, Seattle, and Toronto to join Las Vegas in 2017 NHL expansion, number of NHL teams will be raised to 34. (Howard Bloom)
p94
I504500863944376321
sVI aint know Obama daughter was pregnant \U0001f629
p95
I538861627018579968
sVExpect to see Russian Forces At US Events to Provide \u201cSecurity\u201d - This is illegal under Posse Comitatus! http://t.co/tiuS5kuA9U
p96
I351767344097398785
sV47 days after his plane was shot down over Ukraine, #MH17 pilot laid to rest http://t.co/yG4pzYFe93 http://t.co/ghDztejhJr
p97
I506784541696991232
sVWhen an Iowa man asked Ted Cruz an uncomfortable question, the room went silent https://t.co/55iPmxiqiM https://t.co/jYJaOtSNFR
p98
I693537938425171968
sVICYMI: Joe Parsons's snowmobile sit-n-spin backflip was unreal.\u000a\u000aSee more epic #XGames action on ABC all afternoon: https://t.co/9cHist3d20
p99
I693534177694609409
sVObama keeps Michelle's http://t.co/ztbxlzB9CX site RUNNING despite the shutdown but http://t.co/uz11mxTJp1 is SHUTDOWN because? #SpiteHouse
p100
I387041762331471872
sVMorocco says it has arrested a Belgian national linked to men who carried out Paris attack, in which 130 people died https://t.co/gA1d8xVpk8
p101
I689100941119848449
sVSomeone spray painted a penis on a $2.4 mill Bugatti http://t.co/r10yl3RUba
p102
I521727831307722753
sVUkraine officials say Malaysia plane #MH17 was shot down by a Buk missile system http://t.co/EwADUXm6Vq http://t.co/81ebw6LxzM
p103
I490080544949276672
sVAt least two people are dead in a shooting at a school in northern Saskatchewan, Canadian government official said https://t.co/pYsSrH66lC
p104
I690676539323740161
sVAfter initial DQ, US women reinstated, will re-run 4X100m relay in bid to make final. https://t.co/iHPE2y9rm4 https://t.co/f3X0wNm2r8
p105
I766299795833102336
sV#MacklemoreJoinedISIS
p106
I568452856224747520
sVDoctor of "Concussion" fame willing to "bet my medical license" that O.J. Simpson has CTE: https://t.co/gV2LkGKogI https://t.co/xpFRr3wLyQ
p107
I693487871806689280
sVIbtihaj Muhammad wins bronze in fencing, becomes first U.S. Olympian to compete in a hijab: https://t.co/S17WSqfqzc https://t.co/1Tblc5QAIX
p108
I764620072228970496
sVMichigan Gov. @onetoughnerd: #FlintWaterCrisis may affect "many more" children. https://t.co/NrW6kKcFir. https://t.co/KvtozB8HKg
p109
I692472216135569409
sV2009: @POTUS bet big on rescuing the American auto industry.\u000a\u000aToday: It's roaring back. https://t.co/rOfdMEt5IY https://t.co/wOwiCnqemp
p110
I690252631822864384
sVOne person dead, many taken to hospital after shootings, stabbing at Denver Coliseum, police say.\u000ahttps://t.co/V9BXxUakNA
p111
I693554007785234432
sVhorrified at news that macklemore has joined ISIS #MacklemoreJoinedISIS http://t.co/N3PJO0ciWV
p112
I568571403756294144
sVFrench police chief killed himself after #CharlieHebdo attack http://t.co/KC8nCzimBl http://t.co/EnZQarIezF
p113
I554886875303780352
sVArenal is one of 6 spectacular volcanoes located in #CostaRica. http://t.co/9VysA69Mpe
p114
I557621135320178688
sVU.S intel: Missile that hit #MH17 was most likely fired by pro-Russian separatists. Details: http://t.co/pEls96m1he http://t.co/8b1HopoH7C
p115
I490141776984825856
sVLego reveals new young disabled figure after #ToyLikeMe campaign https://t.co/9837z16FXM https://t.co/JPYAmftVYs
p116
I692818857187213313
sVHappy #NationalChocolateCakeDay! https://t.co/9IreiAN8K1
p117
I692376812022792196
sVAn American woman on vacation in Grenada was killed after she was attacked by a man with a machete. https://t.co/ngx6B16CXN
p118
I691889802724118532
sVHey, it looks like... \u000a\u000aOh. \u000a\u000aRT @Marc_Leibowitz: Photo of Vladimir Putin's motorcade.\u000aPosted without comment. http://t.co/kspo4NFzpI
p119
I531565935128498176
sVRIP Kenny Baker, the actor behind legendary Star Wars droid R2-D2: https://t.co/BVxMfm16Qa https://t.co/9fY0kOeYrh
p120
I764505291853627392
sVBBC reports that broadcaster Sir Terry Wogan has died of cancer aged 77
p121
I693722259740069889
sVGonna be unreal when Las Vegas goes undefeated at home every year........ #nhl #expansion
p122
I504433135036407808
sVA golden send-off.\u000a\u000aIn his final Olympics, Carmelo Anthony becomes the first man to win three hoops gold medals. https://t.co/UfSZam0RZA
p123
I767463109778894848
sV.@JustinBieber and @KendallJenner strip down for their new @CalvinKlein ads: https://t.co/m8gWGAlF2o \U0001f60d https://t.co/Jn1qTCIDo0
p124
I692391757775028228
sVAmerica\u2019s biggest toy company is changing the most famous body in the world https://t.co/PfJoKBo7tS https://t.co/jAsM6N28dT
p125
I693785810311778304
sVBanksy has not been arrested: Internet falls for hoax report: http://t.co/dWM6pj9r6H http://t.co/76cYSYB3MD
p126
I524176293450223616
sVFlorida Woman Pays $20,000 For Third Breast | http://t.co/jZA7fnTV0t http://t.co/Zan0HIIfJJ
p127
I514150992552931328
sVSo-called Islamic State's propaganda magazine confirms British militant known as Jihadi John died in November https://t.co/GisWYPdxZi
p128
I689555819059351552
sVCould a Buk surface-to-air missile system have brought down Malaysia Airlines Flight 17? http://t.co/gElXLSMNzB #MH17 http://t.co/mbUz2pAYAo
p129
I489836271049928704
sVDear President Obama...it looks like Stay-at-home Moms vote too.
p130
I529857740059860992
sVThe challenges Saudi women face as they vote and stand in elections for the first time \U0001f4fa https://t.co/mKLIaWrgpW https://t.co/yuacsDzfgZ
p131
I693408117225299968
sVOur daughters should get paid the same as our sons for doing the same work.\u000a\u000aPeriod.\u000a\u000ahttps://t.co/8UoDjaKAtg https://t.co/O9QcVXlAVb
p132
I693107789007339521
sVTeacher Picks Wrong Student To Believe In Every Fucking Year https://t.co/EPpB5XFqwE https://t.co/1H82PSwQMT
p133
I692063305297453060
sVBanksy's response to the #CharlieHebdo Shooting\u000ahttp://t.co/LoWKhA5cju http://t.co/qpHaGEyCnM
p134
I553061846081896449
sVIt\u2019s a dog\u2019s afterlife: Pope Francis says there\u2019s a place for pets in paradise http://t.co/vTLrn5MMOi
p135
I543319210659971073
sVBriton who filmed himself abusing girls as young as eight in the Philippines sentenced in UK to more than 19 years https://t.co/Z94oeAo9nE
p136
I692031514943582208
sVWill you be able to float on Jan. 4, 2015, aka Zero G Day? \u000a\u000aHint: No.\u000a\u000ahttp://t.co/93pgWfxgtu http://t.co/rCzrdWRC1J
p137
I547803254516490240
sVApple fans' tight pants are bending the iPhone 6 Plus http://t.co/HgVnlHxdwd #Bendghazi http://t.co/tsdaEg0oLd
p138
I514508854990999553
sVDarren Wilson told the Post-Dispatch that he was not paid for the ABC News interview. #Ferguson Via @ChristineDByers http://t.co/k8j9ctUgjy
p139
I538847758032310272
sVHe's 17 and can squat 875(!) pounds.\u000a\u000aJoseph Pena is not of this world. https://t.co/gZ6Axav3Wf
p140
I693239731031683072
sVAn unexpected bond has developed between damaged parrots and traumatized veterans https://t.co/0Zf0VISbOH https://t.co/qXd7FbyXbv
p141
I693676692309700609
sVOLYMPICS: Matthew Centrowitz wins men's 1,500M race, first gold for US in event since 1908. https://t.co/POH8mKLJtK https://t.co/t0dxGTVzvC
p142
I767154835993063425
sVBanksy's take on Charlie Hebdo is simple, elegant &amp; uncompromising \u000a#JeSuisCharlie http://t.co/FoQeqSd548
p143
I553098571323437056
sVA sloth clings to a pole in Ecuador ... and so much more. See the week in 37 photos https://t.co/RhEObQq2qF https://t.co/R5KIy6G8Z9
p144
I693485676881403905
sVList of overnight arrests in #Ferguson much higher than officials reported http://t.co/GQdfut0VFM http://t.co/QZN1AwnVsy via @FergusonUnity
p145
I501774615837163521
sVNicoDerm Introduces New Nicotine Eye Patch https://t.co/0NNPKicENW https://t.co/hHmdsPP5t2
p146
I692842124841123842
sV*BREAKING NEWS* Obama Administration files federal charges against George Zimmerman! #OnTheRoadToJustice
p147
I356310469390245888
sVHow 2 little-known actors became the Obamas https://t.co/zf2GaLSyMN https://t.co/biYcVqwWC7
p148
I693673606279229440
sVA penis spray-painted on a $2.5 million Bugatti was just for a prank video. http://t.co/vMUrmB6Gy2 http://t.co/8PZsFhPgEy
p149
I520244836084228096
sVFlorida woman surgically adds third breast in bid to become reality TV star http://t.co/rDUoreNnld http://t.co/JDwHOCeNyF
p150
I514062859987595264
sVReally? Amber Alert website goes dark under government shutdown http://t.co/fo3swIVHUp
p151
I387009577763360768
sV69 people die after drinking beer believed to have been poisoned with crocodile bile in Mozambique: http://t.co/N5HdS74Z0k
p152
I555072815154475008
sVCalm Yourselves-\u000aDurex has NOT come out with a pumpkin spice condom\u000ahttp://t.co/6dOgLhvIsZ http://t.co/seV7NK1ZxK
p153
I509152237503778816
sVUnpopular Police Officer Thinking About Committing Racially Motivated Offense For A Little Support https://t.co/wgmwqwiffk
p154
I691632933170450435
sVDarren Wilson was paid $500,000 for his ABC interview. And so the hands of racism and capitalism continue to wash one another.
p155
I537378640653475841
sVThese aerial photos of Dutch tulip fields are stunning https://t.co/BCyhrtJZGT https://t.co/bTL6WzIndb
p156
I693926742814281729
sVJapanese Prime Minister Shinzo Abe at #Rio2016 closing ceremony is all our Super Mario dreams. https://t.co/IyzWoU21bZ
p157
I767528171520524288
sVVladimir Putin\u2019s Motorcade As Seen From The Air.\u000a\u000ahttp://t.co/xHvPScyQ6p http://t.co/hSWR7ON9yr
p158
I532246457609244672
sVHe's not arrested, but he has been busy... New Banksy mural appears in Bristol http://t.co/pAVZ6WhbL0 (Pic: Banksy) http://t.co/7PWfrYqwSH
p159
I524289058290159616
sVSorry, everyone\u2014Durex is NOT making Pumpkin Spice condoms this fall: http://t.co/WsehuSG3fy http://t.co/IdqZFlf90E
p160
I509114008587100160
sVThe on air broadcast premiere of @ZaynMalik's #Pillowtalk is on MTV at 8:15p. Be there \U0001f525 https://t.co/4M4pJ7lH95  https://t.co/F2lM28Y4G1
p161
I693125234317086720
sVIslamic State has confirmed 'Jihadi John' is dead following reports he was killed in a drone strike in Raqqa last year
p162
I689549346875031552
sVVladimir Putin\u2019s Motorcade As Seen From The Air.\u000a\u000ahttp://t.co/xHvPScyQ6p http://t.co/4HJgimy5OS
p163
I532106726539939841
sVKendall Jenner and A$AP Rocky are "full-on dating" \u2014 exclusive details! https://t.co/UNEafAFrkd https://t.co/Nvc1aVIGKe
p164
I763404633217835009
sVThe Las Vegas Raiders?\u000a\u000ahttps://t.co/KQWdoHifrv https://t.co/lXRK6j10JS
p165
I692892472729415680
sVDeadline to enroll for 2016 health coverage is almost here\u2014sign up by Jan. 31: https://t.co/JxkdfhYxgO #GetCovered https://t.co/N0Cj2QazoF
p166
I691410231549530112
sVBowie's last album was 'parting gift' for fans, in carefully planned finale https://t.co/C9alc6HKGZ https://t.co/EhnH7MjiOr
p167
I686493272806576128
sV\u2018Keep It,\u2019 Says Simone Biles Throwing Gold Medal To Adoring Men's Gymnastics Team https://t.co/UtLiciCbUX #Rio2016 https://t.co/rWWG8NZ1kW
p168
I767515401831997440
sVGerrymandering is even more infuriating when you can actually see it https://t.co/c3lOlCLssw https://t.co/wPymT8ubhM
p169
I692765809425408000
sVArea Dad Just Wants To Watch One 7-Hour Block Of Television Without Interruption https://t.co/omJK3hMj95 https://t.co/k9aNvLkqC5
p170
I693198912660885505
sV#UFC202 was Conor McGregor's first fight ever to go into the championship rounds. \u000a\u000aHe made the most of it. https://t.co/iOX1nXBQp0
p171
I767218194385866752
sVICYMI, #Selena's killer &amp; former fan club president will NOT be released early from prison! http://t.co/BW22ttmaNr http://t.co/LR0DuOiSj5
p172
I542600886653292545
sVThe closest that adults can get to believing in Santa Claus again is when they forget that they\u2019ve ordered something from Amazon.
p173
I643807909856415744
sVThe first General killed in a combat zone since Vietnam, it is a travesty that Obama did not attend Major General Harold Greene\u2019s funeral
p174
I501474962935648256
sVJames McAvoy makes that another vote for #Batman. Do you agree? Let us know with '#EmpireBvS'. https://t.co/qJhOImYSgD
p175
I692840850141753347
sVIt ain't Banksy! Meet @LucilleClerc, artist behind the iconic #CharlieHebdo pencil tribute http://t.co/dSLrOOGQN7 http://t.co/TU2rtmUSd9
p176
I553186555150749696
sVThe Times editorial board endorses Hillary Clinton for the Democratic nomination https://t.co/acw8LvglHe via @nytopinion
p177
I693670046497935361
sVEmployees at a Chick-fil-A said to be banned from using slang such as "bae", "bruh", "ratchet" http://t.co/Z8Vu4WihiG http://t.co/mg8jg9aZvv
p178
I532239131540467712
sVCruz stood 21 hours for freedom. Obama won't stand for missing children. #AmberAlert #shutdown
p179
I387021726007042051
sVALPHA MALE RT @Marc_Leibowitz: Photo of Vladimir Putin's motorcade.\u000aPosted without comment. http://t.co/TRC5HPJ9E3
p180
I531568534066057217
sVDonald Trump is the least favorably viewed presidential candidate since at least 1992 https://t.co/m7K0X01dsf
p181
I693662456393134080
sVWind and solar could power most of the U.S. by 2030 without raising electricity prices https://t.co/lVnfJ20yZd https://t.co/Q3rGBo6YaI
p182
I692046121250586624
sVNever thought I\u2019d see the day when Obama would play politics with kids. http://t.co/oydwwiMZ06 #PJNET http://t.co/2sKbtEmn5S
p183
I387281927427727360
sV.@DrZuhdiJasser: "It's disgraceful that this is...the mosque that [@POTUS] picked to be the first visit." @ffweekend\u000ahttps://t.co/pNSMRlDOw4
p184
I693853982293254144
sVMan who died after being shot with Taser by police in Shropshire believed to be ex-football star Dalian Atkinson https://t.co/K08f3NHxpV
p185
I765141361033109504
sVGroundbreaking female pilot who bombed #ISIS is now disowned by her family:  http://t.co/6e4d9leqdh http://t.co/XmZKSFmvwX
p186
I515918632178577408
sVReported photographs from Malaysia Airlines #MH17 crash: http://t.co/iOAUFgfz2E http://t.co/f8YfAAiOIo
p187
I489820657291911168
sVHOAX: McDonald's Issues Official Statement On Racist Sign [UPDATED] http://on.mash.to/jm5MyY  #seriouslymcdonalds
p188
I80084555733803009
sV#RIPHulkHogan My heart is ripping like your shirt. WWE'll miss you.
p189
I495366618818830336
sVHighly radioactive water is seeping into the ocean from Japan's crippled Fukushima nuclear plant http://t.co/KdmA6V7WkO
p190
I364383457545162754
sVA vandal painted a brilliantly simple penis on a $2 Million Bugatti Veyron (http://t.co/mE2Sggi5oB) http://t.co/09uE4kuht0
p191
I519965814175567872
sVUpdate - French media: 28-year-old man carrying two guns arrested at #EuroDisney near #Paris was carrying box of bullets &amp; copy of the Koran
p192
I692746621218656258
sV"I believe we\u2019ve got to take steps to modernize our unemployment insurance system." \u2014@POTUS https://t.co/29FzijvHN3 https://t.co/n8MvWkeBOr
p193
I689236842454106113
sVIf Amber Alert really had to shutdown b/c of lack of funds, as Obama said, why did it go back up today after bad PR? #GovernmentShutdown
p194
I387233034350514176
sVDonald Trump's campaign chairman Paul Manafort resigns https://t.co/DSUqwXy4Bs
p195
I766638613320859648
sV.@VP Biden: Malaysia Airlines #MH17 was 'shot down not an accident. Blown out of the sky.' http://t.co/OSHZZrWvpi
p196
I489874311143260160
sV#Mexico mass grave discovered after student protesters go missing http://t.co/hUXdec6PK3 http://t.co/sds21Dx4DF
p197
I518665533089406976
sV#StevenUniverse will finally return to our screens in January! https://t.co/VSHBxFjOJj https://t.co/G8wKfAwVQs
p198
I677950378785271808
sV.@POTUS's favorite movie of the year?\u000aHint: He loves saying "science the heck out of this thing" #YouTubeAsksObama https://t.co/l33F3fPl1h
p199
I688096910217879554
sVMalaysia Airlines plane MH17 'Shot down in Ukraine near Russian border' http://t.co/IOg1RTm02b http://t.co/BEFTiNFbng
p200
I489798752438583297
sV#RTLNY: Because a Stuyvesant senior made $72 million trading stocks on his lunch break http://t.co/cHu1QAkJTY http://t.co/HofWdKFTJs
p201
I544457299667202048
sVThe fact that Malaysia Airlines #MH17 was shot down may hinder insurance payouts http://t.co/ZaRpwrSoaa http://t.co/o0xnrXi5N9
p202
I490136764619948032
sV13 truth bombs @ZaynMalik dropped in his first solo broadcast interview: https://t.co/wFiQSKzNiX #ZaynOnBeats1 https://t.co/PUpj4GdCGG
p203
I692800345274241025
sVPolice Chief Helric Fredou, one of the police officers investigating the case #CharlieHebdo, commits suicide. http://t.co/FWeWbdzlvL
p204
I553960736964476928
sVBanksy account joins cartoonists support for #CharlieHebdo #JeSuisCharlie  http://t.co/nFD1N4Yqu0 http://t.co/R2bEWKupRt
p205
I553099685888790528
sVPoll shows 40 percent of Germans want Merkel to resign over her refugee policy: https://t.co/XKAiWH77AV https://t.co/YeS4r9OR3p
p206
I693185488644149248
sViPhone 6 Plus users are sitting on and bending their enormous new phones\u000ahttp://t.co/a9ToforCOp
p207
I514468018970034176
sVMan At Salad Bar Has To Say Every Item Aloud As He Adds It To Salad https://t.co/Pkeomw9mUq https://t.co/qb5DbEZgU5
p208
I692134022839955456
sVPresident's Daughter Malia Obama Spotted Wearing A Pro Era T-Shirt http://t.co/NJQwC43gt4 http://t.co/bvB7k4pNom
p209
I551942365901250560
sVwhat if talking angela is actually boris laursen he be like "i just stole all your personal information what are you going to do about it"
p210
I435998882250899456
sV"We\u2019ve achieved this historic progress through diplomacy, without resorting to another war in the Middle East." \u2014@POTUS #IranDeal
p211
I688751183645782016
sVNews that 'Home Alone' star Macauley Culkin is dead has been confirmed as a hoax, he is alive &amp;well. #MacauleyCulkin http://t.co/4on1xDKB4a
p212
I531108688749404160
sV"I almost started crying ... but I didn't want them to make me the crying face instead of Jordan." --Draymond Green\u000a\u000ahttps://t.co/r0qU97drrE
p213
I692932696645865472
sVGreek islanders to be nominated for Nobel peace prize https://t.co/m1jbhLml8N https://t.co/epibkeZVoy
p214
I691206970074738688
sVBy all means, let's turn over healthcare decision making to people willing to shut down the Amber Alert website out of spite.
p215
I387007120689737729
sV'Nine Britons and 80 children' feared dead after flight #MH17 'shot down' \u000ahttp://t.co/RZKxYskhg0 http://t.co/WK03huCNrk
p216
I489841070818488320
sVAPPLE JUST INVENTED THE PENCIL. #AppleEvent http://t.co/YEDSGLS6KT
p217
I641665203046907904
sVHugs! @Simone_Biles &amp; @Aly_Raisman during the #ClosingCeremony (Photo: Rob Schumacher, @USATODAYsports) https://t.co/s47A55fAsj
p218
I767520433247809536
sVKristen Stewart: \u000a\u000aReality: http://t.co/DaFimlCUEf\u000a\u000aDemented right-wing fantasy: http://t.co/8C79FxV3y6
p219
I521717368264093696
sVApple reports slowest iPhone sales growth since product's 2007 launch https://t.co/ZRfV94PcTH
p220
I692099058811453440
sVWho shot down the plane? Where are the black boxes? 8 unanswered questions from #MH17: http://t.co/1TMgwvwkM3 http://t.co/2rTh8hcxG1
p221
I491200302365040640
sVBanksy's response to the #CharlieHebdo attack isn't by Banksy. But it is striking: http://t.co/mag1lJXzjL http://t.co/3TDPkGFxrx
p222
I553169307824177152
sVMost companies pay little attention to how employees are feeling. This is a mistake. https://t.co/a8rMB0OunN https://t.co/HJdTxDfdTM
p223
I693116426824093696
sVAmerican leadership in action: Iran's four pathways to a nuclear weapon have now been blocked. #IranDeal https://t.co/iNYESeDova
p224
I688502260779843587
sVResearch on which matters more: "leadership qualities" or competence https://t.co/pv5irMkHbS https://t.co/CmsSMxgPbV
p225
I693804630615166977
sVCongress Allocates $90 Million To Protect Remaining Eagles Members https://t.co/5y3Wl8nhgL https://t.co/5VjL5XzEh8
p226
I691327238353129472
sVWoah! Olivia Pope ditches the white hat for a hot new look in this badass Scandal promo: https://t.co/TndfQG93ed https://t.co/IeBFdBftj6
p227
I687786822475366401
sVBREAKING: Malaysia Airlines passenger 'shot down' near Russian border in Ukraine http://t.co/a6SHqAWx0Y http://t.co/cYF201yiC2
p228
I489794593580650497
sVAnd here's a guy bending an iPhone 6 Plus with his bare hands http://t.co/6z7fHaeiYn http://t.co/Pb74z0LwVg
p229
I514517470238240768
sVStill waiting for Tupac to accept my ALS ice bucket challenge. Bruh, I know you're still alive.
p230
I504830161993609216
sVNothing to see here. Just Nuggets forward Wilson Chandler catching a 350-pound fish: https://t.co/dDDy7EyYG7 https://t.co/MECiIbXUpO
p231
I767715489485205505
sVBREAKING: Patient being tested for Ebola in Kansas http://t.co/IqasyqcG9E http://t.co/Qky6QUgU9p
p232
I521821037726797824
sVCanadian Mayor tells Muslim to pound pork.  REFUSES TO REMOVE PORK FROM SCHOOL CANTEEN.  http://t.co/CxDsW71q8C http://t.co/d0r9uCQWJZ
p233
I538166788484509696
sVFox: Obama offers "to pay out of his own pocket for the museum of Muslim culture." Their source: A satire website http://t.co/p0TGtKecWt
p234
I386682163862986752
sVCrowd chants 'do your job!' at CNN crew... https://t.co/E8rkOP6xaV
p235
I767482587879051265
sV"An extraordinary broadcaster" - tributes paid to Sir Terry Wogan who has died aged 77 https://t.co/xhCLOeQWAr https://t.co/JReLhvx90t
p236
I693729678306189313
sVGreece has "seriously neglected" obligations to control external borders, European Commission says in draft report https://t.co/tJlZGKYzyD
p237
I692332739824095234
sVHey @ABC, why won't you tweet a statement saying that you did not pay or compensate Darren Wilson for the interview? Why silent? #Ferguson
p238
I538724882461097986
sVDon't worry ppl #ISIS isn't a threat to homeland. Man wearing body armor with ISIS flag on it arrested in #Texas http://t.co/PteB5hDHci
p239
I509084603617792001
sVAtheists Are Mad At @carrieunderwood. I Applaud Her. http://t.co/APykwGQEDF
p240
I518192429153783808
sVMan helps woman to safety before being crushed to death by elevator in NYC https://t.co/iz563kfjja https://t.co/8kVyvlXWPl
p241
I683158807959089152
sVNo, Vladimir Putin has not been driving round in a motorcade shaped like a penis\u000ahttp://t.co/djrnW1Eyr4 http://t.co/9xvwmyBW4V
p242
I531833233143783424
sV#RIPHulkHogan. You lifted weights, but you also lifted my heart.
p243
I495365942726381568
sVUS Olympic swimmers "invented" robbery story to cover up petrol station altercation, Rio police sources tell BBC https://t.co/xcnLqjY2Yw
p244
I766299560415223808
sVHave you seen our exclusive @BatmanvSuperman pics yet? https://t.co/3FRY7bbMCU https://t.co/7lNzsZ6IrS
p245
I692047663211085825
sVSeriously? Racist McDonald\u2019s Sign Is Obviously a Hoax - http://on.mash.to/jm5MyY
p246
I80080680482123777
sVI'm alive, see you soon !
p247
I506118402466152449
sVAmid the chaos of winning gold, @neymarjr found a moment with his son. https://t.co/tDWQXH1C6h
p248
I767355611277168642
sVWe are running out of chocolate, warns world's largest chocolate manufacturer\u000ahttp://t.co/8zL3r8VdOh http://t.co/GcVfLTSPTI
p249
I534278078105944064
sVA Florida woman had surgery to add a third breast to make herself "unatttractive to men." http://t.co/1K81ZGc4rv http://t.co/OcCx9ZMIS9
p250
I514072132301910016
sVThis young Warriors fan wants Riley Curry to be his Valentine.\u000a\u000aWhat does pops have to say about that? https://t.co/tQuHRDVm8c
p251
I692946556396244992
sVDrift into a peaceful slumber w/@TheJeffBridges' new #SleepingTapes album. Listen now at http://t.co/PHQnh2B0ah. #Om\u000ahttps://t.co/YBb3ehXnHu
p252
I560442390805090307
sVTHREE OF FIVE DETAINEES SWAPPED ARE NOW ISIS LEADERS: http://t.co/Ev0O7WcOBb #talibanswap #TCOT #CCOT #USA #Bowie http://t.co/voaAdLpmUi
p253
I511918957255991296
sVThe Nigerian government says it has secured the release of 200 schoolgirls after agreeing ceasefire with Boko Haram. http://t.co/I8HyyTDBEN
p254
I523123023646175233
sVHey. Can we take a minute (or all the minutes) to talk about @NiallOfficial + his glasses? https://t.co/EaGAVUW8eV https://t.co/GFzi45Liq1
p255
I692113799546048513
sVREVEALED: #Fukushima leaking radioactive water for \u20182 years\u2019, 300 tons flowing into Pacific daily http://t.co/fG8BSCizKB
p256
I365052155385749505
sVBREAKING: Malaysia Airlines plane 'shot down' was carrying 295 people http://t.co/a6SHqAWx0Y http://t.co/1W0x1aFIDB
p257
I489796088338341888
sVDammit, Janet! Fox\u2019s Rocky Horror Picture show casts @VictoriaJustice https://t.co/SED5y1dgsU https://t.co/MA9GGVLfii
p258
I684118654418419712
sVLATEST: Malaysia Airlines #MH17 shot down by a surface-to-air missile, U.S. officials say http://t.co/Cphpqiy5Qt http://t.co/OfrcbT1Uat
p259
I489872119158046720
sVObama Declares Stay-at-Home Moms Aren't Worth a Hill of Beans; Says It's a Choice 'We Don't Want Americans to... http://t.co/kMPOiFNgAj
p260
I528976109518721024
sV"When any Jew anywhere is targeted, just for being Jewish, we must respond, together" \u2014@POTUS at @IsraelinUSA https://t.co/e4YX5AdsPT
p261
I692510002586714113
sVFukushima now in state of emergency, leaking 300 tons of radioactive water into the ocean daily\u000a\u000aLearn more: http://t.co/8vHcj53BwB
p262
I372489152903643136
sVEagles guitarist Glenn Frey has died, the band announces  https://t.co/hyN0XmA6I9
p263
I689208632148365314
sV#VIRAL: Mexico mass grave discovered after student protesters go missing http://t.co/hUXdec6PK3 http://t.co/1JshL3CXUW
p264
I519375764165509121
sVDarren Wilson got $500k from ABC for interview, plus $500k for donations... he is a killer millionaire, literally
p265
I537355288295518210
sVThey left Syria in 2013 for a camp in Jordan and arrived in Detroit last week. Their story https://t.co/5LNZuSNMXz https://t.co/xBigxLbY5I
p266
I670380354822348801
sVBREAKING: Police operation at Bataclan concert venue over, two attackers killed: BFM TV https://t.co/IqBR1xcs8O
p267
I665317131597291520
sVFrench justice minister quits in apparent protest at plan to strip citizenship from people convicted of terrorism https://t.co/hTGVP96JIs
p268
I692267960686284800
sVJapanese Government says Fukushima nuclear plant is leaking 300 tons of radioactive water into the ocean EVERY DAY http://t.co/MyiFPiNpzo
p269
I366025766183514112
sVThey found him shot dead and burned in his car after the #Ferguson chaos. What happened to Deandre Joshua: http://t.co/2MsSomv9wj
p270
I539813330983354368
sVStudy Finds Girls Outperforming Future Employers In School https://t.co/BwOvr0KAcC https://t.co/yjhclsTIAe
p271
I693452449173086210
sVPhil Robertson: "The reason I'm going for @tedcruz is that Cruz loves God and James Madison." @TeamCavuto\u000ahttps://t.co/8z8y0KEdj6
p272
I693912520923295745
sVThe Beatles' rooftop concert happened 47 years ago today. Here are 15 things you didn't know https://t.co/sfPj1EpGaJ https://t.co/GT9YrTTzL4
p273
I693459931022913536
sV\u0e40\u0e1c\u0e22\u0e01\u0e1a\u0e0f\u0e22\u0e39\u0e40\u0e04\u0e23\u0e19\u0e2d\u0e32\u0e08\u0e40\u0e02\u0e49\u0e32\u0e43\u0e08\u0e1c\u0e34\u0e14\u0e04\u0e34\u0e14\u0e27\u0e48\u0e32 #MH17 \u0e40\u0e1b\u0e47\u0e19\u0e40\u0e04\u0e23\u0e37\u0e48\u0e2d\u0e07\u0e1a\u0e34\u0e19\u0e17\u0e2b\u0e32\u0e23\u0e22\u0e39\u0e40\u0e04\u0e23\u0e19\u0e23\u0e38\u0e01\u0e25\u0e49\u0e33 / 14 \u0e01.\u0e04.\u0e01\u0e47\u0e40\u0e1e\u0e34\u0e48\u0e07\u0e22\u0e34\u0e07\u0e15\u0e01\u0e44\u0e1b\u0e25\u0e33\u000ahttp://t.co/4ye5I08Goc http://t.co/qYgKkjfTIw
p274
I489829414704648192
sVObama Gently Guides Michelle\u2019s Hand As She Maneuvers Drone Joystick https://t.co/GeWuBTx0Uo https://t.co/CdLQfSWI5A
p275
I693512850539683842
sVBetty White Is Victim of Death Hoax After Fans Misread Satirical Story About 92-Year-Old's Dye Job http://t.co/FekY2EjWyC
p276
I507354546041925632
sVAfter two weeks, thousands of Gravity Falls fans completed this global scavenger hunt https://t.co/Mv2y7r773c https://t.co/1WxZjXvsey
p277
I761027420849745920
sVGraffiti Artist Banksy Arrested In London; Identity Revealed - National Report | National Report http://t.co/G8OoJd8ytb
p278
I524144369235140608
sVFirst pics from the site in Ukraine where #MH17 crashed\u000ahttp://t.co/Rjq5jGzyGn http://t.co/fs74YirK9V
p279
I489836441120145408
sVUS Justice Department will phase out use of privately owned prisons, citing safety concerns https://t.co/WRMWKlbLB3
p280
I766307327922335745
sVOur quote of the day is from American writer Dorothy Parker https://t.co/2QhTOnx7IG
p281
I767668607803359234
sV#IceBucketChallenge donations exceed $94 million. Thank you for your support! http://t.co/vLkQPG2lmH
p282
I504652021601800193
sVThe always hilarious @ShelleyHennig has taken over the @MTVteenwolf Vine and it's as amazing as it sounds. https://t.co/JfaaKD8DMI
p283
I692134721195786240
sVhttps://t.co/yE7pAOS19e to end operations next week: https://t.co/LnvG0ZmD9I
p284
I766316494695305218
sVYou all do know it\u2019s mostly long articles about books, right? https://t.co/DGXFwPyPPX
p285
I678733118648524800
sVAs a former federal agent I find this story hard to believe, even for this White House. http://t.co/v6pLdGD4A5 #SpiteHouse
p286
I387010299536355328
sVHe was Severus Snape. He was the Sheriff of Nottingham. He was Alexander Dane. He was, of course, Hans Gruber. We are devastated.
p287
I687617735833026560
sVGood news: 185 businesses answered @POTUS's call to give Americans with a criminal record a fair chance at a future. https://t.co/O8c9ElYkWw
p288
I765631087867367426
sVA world without chocolate?! Two of the world's biggest chocolate makers could face a shortage: http://t.co/5KBVD1kxKs http://t.co/33NxtTxNa7
p289
I534409916560461825
sVNo, Vladimir Putin did not travel in a phallic motorcade formation http://t.co/cDmqwH3fvD http://t.co/lGo7otenPr
p290
I532284428542681088
sV.@POTUS's reforms to solitary confinement will expand treatment for the mentally ill: https://t.co/0G7tIBFkeh https://t.co/VeAxx82lK5
p291
I692082337333534720
sV.@bilodope @emilybett @aishataylor at the #InStyleGlobes bash #GoldenGlobes https://t.co/oWfK0tIY5W
p292
I686422922894815233
sV"Look at this stage, this is what we talk about when we talk about diversity. " #SAGAwards https://t.co/HRvEY0flJM
p293
I693605375803813889
sVMeet Quasimodo, the dog with the short spine https://t.co/M6R2VbZDgl https://t.co/KfhMGi7FUI
p294
I693234925252775936
sV43 Missing Students, a Mass Grave and a Suspect: Mexico\u2019s Police http://t.co/xoXPLIjeic
p295
I519447199164665856
sVToday marks 71 yrs since the liberation of Auschwitz, \u201ccity of death\u201d https://t.co/iB5cyTrRK4 #HolocaustMemorialDay https://t.co/fTcWrPwL6g
p296
I692382471061663744
sV"@DangerBurgundy: @joerogan what...successful clone of dinosaurs  http://t.co/L7EFgNt8NK" holy shit, is that real?
p297
I450341615979069440
sVHappy birthday to the man who brought sexy back! \U0001f389\U0001f525 https://t.co/dsa1I8MCSN https://t.co/tcD3RRV0Qn
p298
I693855615618322432
sVToday\u2019s work world requires continuous growth and learning.\u000aHere's a process to decide what skill to work on next: https://t.co/7V90tQwwQm
p299
I693686290408181760
sV#Breaking: Justin Bieber thwarts bear attack!! http://t.co/UvxCiXZ346 http://t.co/6dkULDwsjX
p300
I497073936077959169
sVThanks to the #IranDeal, Iran's four pathways to a nuclear weapon have been blocked \u2192 https://t.co/3PJ1t0Zk7U https://t.co/IvvB4INuRm
p301
I688520025754304512
sV"We have now cut off every single path that Iran could have used to build a bomb." \u2014@POTUS #IranDeal https://t.co/LM2W9ZqH7E
p302
I688763993633107968
sVThis is just about the weirdest fetish I've ever heard of. What was he THINKING of? (via @elvis717) http://t.co/IEd2IiWSqX
p303
I334722003057647616
sVHard work, focus, and a dream\u2014that\u2019s the spirit of @MichaelPhelps. Tonight, we congratulate him and all of @TeamUSA on making history.
p304
I764653644138450945
sVIt's official. 2015 was officially the hottest year ever. And 2016 will be even hotter https://t.co/Mtm3XH8sB2 https://t.co/tKayrnsBhH
p305
I689833530197671936
sVFrom the BB vault: Donald Trump's dad arrested in KKK brawl with cops https://t.co/fpSE9nAMaE https://t.co/Ux3astp9KM
p306
I688441130271289350
sVFormer 3 Doors Down guitarist Matt Roberts has died at age 38, according to his father. https://t.co/kNNHJRtwJf https://t.co/MSFK97Zx3c
p307
I767223774072676354
sVAt least three French soldiers killed in avalanche in the Alps during training exercise - French media https://t.co/Xgn7qWTM6C
p308
I689103487880310785
sVJustin Bieber must be loving himself right now. https://t.co/p2keApSMiR
p309
I692812029611089920
sVMore than a million observations by amateur bird watchers helped collect data for this map https://t.co/INWDL3oQj5 https://t.co/VYEGKoQVyg
p310
I693795905049329664
sVDeep-Fried Left Wings\u000aDemo-Crab Cakes\u000aBarack-amole &amp; Chips\u000aMalia Quesadillas\u000aHawaiian Pizza \u000aSloppy Joe Bidens\u000aObamacare-rot Cake
p311
I265953285247209472
sV.@tedcruz: @marcorubio "broke his promise to the American people" on immigration https://t.co/NWrKEuVMEB #CNNSOTU https://t.co/oJzwcVwZof
p312
I693802524579618816
sVUpdate: Rebel leader in recorded call: We just shot down a plane (English subtitles) http://t.co/ubaXiRTCVz #MH17 http://t.co/HTIBm6dBzB
p313
I489902412900343809
sVUgh. ABC reportedly paid #DarrenWilson a 'mid to high' six figure fee for his interview: http://t.co/323suqFAs1 ht @senorchompers #Ferguson
p314
I538975342011363328
sVChat about @MTVteenwolf with @mandaaabearr + @kaitiii https://t.co/ftfacrZ92d
p315
I692453106622275585
sVSay "Aloha" to the happiest, healthiest U.S. states!\u000a\u000a1. Hawaii\u000a2. Alaska\u000a3. Montana\u000a\u000ahttps://t.co/UlWNY49rPo https://t.co/maoeFnxSuu
p316
I692688891174739968
sVNo, Banksy has not been arrested - this story is a hoax http://t.co/ekC5Jb6pMu http://t.co/gIstUt4i6s
p317
I524168442841010176
sV\u2018Planet Nine\u2019 may exist on the edge of our solar system, claim astronomers https://t.co/xaR9d258R2 https://t.co/gpswCjga2U
p318
I689853056440221696
sVForty percent of Germans say Merkel should resign over refugee policy: poll - https://t.co/3XhE1x8sQ9 https://t.co/SdHFgz7Hp2
p319
I693071700200722433
sV'Sean Combs Hoax: Puff Daddy Arrested in Tupac Shakur Murder Totally Fake; P Diddy is OK' http://t.co/MpfAAtEfR7 http://t.co/YnoyHAyzo3
p320
I513437031020916738
sVJapan's first stealth fighter unveiled\u000ahttps://t.co/1uDXT6VmOB https://t.co/59AtQH3FlO
p321
I693492349142433792
sV.@BernieSanders: @HillaryClinton's emails are a "very serious issue" https://t.co/RtmjRZHBh9 https://t.co/6gpwa6ngNu
p322
I693807822971236353
sVBird pooped on #Putin when he was saying "Violence begets violence" at the opening of monument to the 1st World War. https://t.co/on9puMk1FG
p323
I495583434954514432
sVAuthorities collecting passports at #MH17 crash site. Australian coat of arms clearly visible. http://t.co/ai16vY46FV http://t.co/JA0gjQt3P5
p324
I489865454312099840
sVOn this date in 1996, Magic Johnson returned to the NBA more than four years after testing positive for HIV. https://t.co/xVJKPKGKU1
p325
I693501482721681408
sVReport: Amazon plans to open its first physical store, in New York http://t.co/4CFjPowSXk
p326
I520284654755381249
sVAl Arabiya television station says three Americans have reportedly been kidnapped in Baghdad in Iraq
p327
I688814621034213376
sVRaven Symone BLASTS Bill Cosby rape story http://t.co/sl8vSgbzOn http://t.co/Awa7DhQpX6
p328
I535315394127728641
sV#Walmart donates $10,000 to #DarrenWilson fund to continue police racial profiling, brutality, murder of black ppl http://t.co/R0JTdOrkjh
p329
I523562674487975937
sVA traditional beer that authorities believe was poisoned with crocodile bile has killed 56 people in Mozambique: http://t.co/IfFX9oXp59
p330
I554343513887105024
sVVideos show suffering of starving in Syrian town of #Madaya. https://t.co/OSHEG487EA https://t.co/Fgg4ynPwMp
p331
I691986377584549888
sVWe are running out of chocolate, warns world's largest chocolate manufacturer\u000ahttp://t.co/8zL3r8VdOh http://t.co/Vrom5jx4ww
p332
I534303066867367937
sVNYC breaks record for snowiest day in its history https://t.co/LsAWQ2H67b #DavidSnowie #Blizzard2016 https://t.co/9a02kSkMvK
p333
I691064699853606913
sVBREAKING NEWS: Banksy NOT arrested, cover NOT blown.
p334
I524186749002473472
sVObama administration shuts down Amber Alert site, blames "confusion."\u000a\u000aDon't worry. They're still in charge of your health care.
p335
I387237225286479872
sVWhy the year's most anticipated pop LP, Rihanna's 'Anti,' is an inward-searching curveball https://t.co/oSAQFEwiiY https://t.co/KzKivVltRR
p336
I692735354240114688
sVBREAKING: Malaysian Airlines passenger 'shot down' near Russian border in Ukraine http://t.co/N9qsJRaTMg http://t.co/qllD2UuKVO
p337
I489794696013967360
sVLeicester KFC refusing hand wipes to a customer because they anti Islamic. What's next? A separate door for woman? Sharia sauce? @kfc arses.
p338
I516856061182345216
sViPhone 6 Plus owners are complaining that their phones are actually bending: http://t.co/m8bOAeLfy4 http://t.co/5OIoB6nzeN
p339
I514550436377137152
sVRussian fighter came within 15 feet of U.S. Air Force jet.\u000ahttps://t.co/T1Oilw1zfE https://t.co/ZI6C3LrlFO
p340
I693355140284334081
sV#Eagles co-founder Glenn Frey has died aged 67
p341
I689214940679409664
sVMike Brown murder trial witness, #DeAndreJoshua fatally shot &amp; set on fire after verdict #DeandreJoshua \u000ahttp://t.co/M8roZQQCoy
p342
I538412662858588160
sVBanksy shares simple but beautiful tribute to Charlie Hebdo cartoonists http://t.co/gJ3jTSZJJ3
p343
I553040930144792576
sVWatch @POTUS's weekly address on giving every student an opportunity to learn through computer science for all: https://t.co/iAxqqpavO7
p344
I693457310824468480
sVEx-New York Giants safety Tyler Sash, who died at 27, found to have degenerative brain disease C.T.E. -  NY Times https://t.co/LyGEcD8TNI
p345
I692142338890661888
sVSeriously?! I must be doing good in life. More fake #FluffyDied shit popping up. http://t.co/2mmncoTXWZ
p346
I529088963420909569
sVObama has taken down Amber Alert website during shutdown, but Michelle's Let's Move site is still up. At least missing kids won't be thirsty
p347
I387050178932654080
sVOne more day until Friday... https://t.co/JYTpYHbREy
p348
I692745861978263552
sVIt's time to make two years of community college free for responsible students \u2192 https://t.co/LcGqzhgiAj https://t.co/giPC4c2FRy
p349
I692451275930234880
sVAt least 45 killed in triple bombing near Damascus https://t.co/NWPCeZdrXt
p350
I693792605755285504
sV"We have to make sure all our kids are equipped for the jobs of the future." \u2014@POTUS #CSforAll https://t.co/iAxqqoSUpx
p351
I693443289370882049
sVThis is a new low. Obama SPENT money to close natl parks but shut down the Amber Alert website. Look for yourself: http://t.co/jG1QYAt7xe
p352
I386998038004113409
sVBruh, just chill. Did you see the slang words this Chick-fil-a manager banned? http://t.co/GvjfZN7Vfc http://t.co/lvsNgvLgpL
p353
I532559937269166080
sVThis is @JackAllTimeLow asking you to watch the #VMA #WeekendBrunch that's starting right now. \U0001f64c https://t.co/R4QqDHZdgW
p354
I767360696761905153
sVA photo of black nurses saving the life of a KKK member. http://t.co/gDh2GSc1Ke
p355
I318263294098030593
sVUp to 34 MILLION green cards and work permits... http://t.co/B4TPrt1QXj
p356
I524227209976745984
sVGraffiti Artist Banksy Arrested In London; Identity Revealed - National Report | National Report http://t.co/kEQY26G3Vx via @wpusta
p357
I524152657783820288
sVY'all, I just read that ABC paid Darren Wilson $500K for the interview. Destroying black life remains a lucrative American career. #Ferguson
p358
I537377960471166976
sV*dead* at this list of banned slang by Chick-Fil-A manager: http://t.co/GmW1ObUKRr
p359
I532007252677656576
sVSaudi prince takes on Trump on Twitter: "I bailed you out twice" https://t.co/6UV2zsrR0I https://t.co/k4BKMau52U
p360
I693622130735484929
sVToday's Cover: Meet the teen who's made $72 million trading stocks on his lunch breaks http://t.co/Facr5UPGxP http://t.co/4aTPvHrSLI
p361
I544154048950435840
sVMAKE WAY FOR LEONARDO DICAPRIO. #SAGAwards \u2764 https://t.co/QEzGaYgVGd
p362
I693595814401327104
sVFive people killed and two others seriously wounded in school shooting in western Canada, PM Justin Trudeau says https://t.co/2jHmRXNdDC
p363
I690680310061756416
sV#MH17 was shot down by "terrorists," an advisor to Ukraine\u2019s Minister of Internal Affairs says http://t.co/0t9mYJ2kEy http://t.co/bJvobNucSo
p364
I489812926828924928
sVcant believe tupac is still alive http://t.co/pNUlF3QFil
p365
I506656271517622272
sVArgentina's president adopted a Jewish boy to save him from life as a werewolf http://t.co/8W22y0rN2T https://t.co/oC61jqOdrk
p366
I549599086073368576
sVMass grave found in Mexico town where over 40 students went missing - http://t.co/s8FRYW0SU3
p367
I518620083342835712
sVThis was Team USA's largest margin of victory in a gold-medal game since the Dream Team beat Croatia by 32 in 1992. https://t.co/jyds31zZIM
p368
I767462297270968321
sVReally? Amber Alert website goes dark under government shutdown http://t.co/wrf96k0pPl
p369
I387006700609228801
sVThe broadcast premiere of @ZaynMalik's #Pillowtalk is on MTV right NOW \U0001f4a5 https://t.co/dPVQF1ylu0 https://t.co/KS1xIlctJ2
p370
I693240976970752004
sV2,000,000 views incoming\u2026 RT @UnboxTherapy: iPhone 6 Plus Bend Test - http://t.co/GySOSLPUDi
p371
I514517213022543872
sVComing 2 America Soon! .@kfc Bans Alcohol-Based Wet Wipes So #Muslims Aren\u2019t Offended http://t.co/8PRox1GmwM #tcot http://t.co/IyPFp8p6hJ
p372
I516804849619705859
sVDisney are making their first movie to feature two gay princes who fall in love, amazing.
p373
I532851585408593920
sV#MH17 is believed shot down with old Soviet-built BUK surface-to-air missile system. http://t.co/MHTY0maBD3 http://t.co/kiurRuDjDE
p374
I489818014364086273
sVNo, #Banksy has not been arrested http://t.co/jLVSb6jxAJ http://t.co/IzX7ON3hE8
p375
I524206851450486785
sVCalm down everyone, Banksy hasn't been arrested #banksy http://t.co/XeeDW4bCMl http://t.co/nxcv2010N1
p376
I524181699043663872
sVomFG READ THIS ITS MY PERSONAL EXPERIENCE WITH TALKING ANGELA http://t.co/BvWdSvOhcJ
p377
I436089462326849536
sV"Let's not make the next two weeks about a 'black QB.' Let's just talk about the greatness of this guy." -C. Barkley https://t.co/MUCCumKswG
p378
I693131575261659137
sVRT @CL_LFC: \u201c@UsVsTh3m: Vladimir Putin\u2019s motorcade looks suspiciously like a massive\u2026\u000ahttp://t.co/zlH9sdvN2i http://t.co/XlhpfcyDXt\u201d
p379
I531900034863091712
sVPart 1: Nate Diaz\u000aPart 2: Conor McGregor\u000a\u000aCan we expect a trilogy? https://t.co/vvYlWavIB8
p380
I767330549262278658
sVMacklemore announced today that he has joined ISIS.
p381
I568580363339091968
sV"We\u2019ve still got to make sure women aren\u2019t penalized or held back in the workplace simply for starting a family. " \u2014@POTUS #WomenSucceed
p382
I693122701569974273
sVMinor leaguer hits grand slam, later finds out that he broke his own windshield https://t.co/SmT03oXcY0 https://t.co/iZwGsrZgoP
p383
I767845555313774593
sVAi Weiwei closes his Copenhagen exhibit in protest of Denmark's new asylum seeker law https://t.co/h9xqOkGCwn
p384
I692336523090509824
sVBREAKING: Malaysia Airlines plane 'shot down' travelling from Amsterdam to Kuala Lumpur http://t.co/a6SHqAWx0Y http://t.co/bQkx3x55EZ
p385
I489796998615547904
sV"We still have sanctions on Iran for its violations of human rights\u2014for its support for terrorism &amp;...its ballistic missile program" \u2014@POTUS
p386
I688752484966363136
sVAfter speculation that he\u2019s been arrested, Banksy debuts new mural in Bristol http://t.co/2MGjSPXcGs http://t.co/cWDL6upMVe
p387
I524881688825167872
sV#Zika virus: everything you need to know about the mosquito that spreads it https://t.co/hAquF0Bqtc https://t.co/Fi4fkdQl1o
p388
I693032076543655936
sVReport: #NHL expansion to Las Vegas \u2018a done deal\u2019 http://t.co/r8p1ZNDNkv http://t.co/TP3zPmXwFE
p389
I504453071041482753
sVNo, Banksy hasn\u2019t actually been arrested http://t.co/Xu7oWBMGCw http://t.co/OJ4ar8kVuo
p390
I524178388282802176
sVDoctors should screen all adults for depression at least once, task force recommends. https://t.co/XsDQ3OlWb6
p391
I692023417575448576
sVMr. President, stop mansplaining your "need" to have government care for *my* children http://t.co/zJnBuUwZk5 #SOTU
p392
I557885928417816576
sVThe fight against ISIS starts at our border. \u2018At least\u2019 10 ISIS have been caught crossing the Mexico border. Build a wall!
p393
I519962130859429888
sV15 Year Old Who "SWATTED" Gamer Convicted Of Domestic Terrorism; 25 Years To Life In Federal Prison http://t.co/0H5i0gsN8S
p394
I505611045897924608
sV2 people killed &amp; 3 hurt at Seattle area homeless encampment, police say. The shooter is at large. https://t.co/qYAUeJM9kY
p395
I692217618778972161
sVHalf A Sleeve Of Oreos Lost In House Fire https://t.co/u25tkXu6ng https://t.co/aYYBhjGPL3
p396
I692759090469212160
sVLeonardo DiCaprio is giving away $15 million to environmental causes: https://t.co/ynFieBbYbP https://t.co/FP0Mx2n63i
p397
I689650617464311813
sVEmployee says manager bans slang at Chick-fil-A. http://t.co/SjnqzWPDOt http://t.co/c7PeTdeoFe
p398
I532319110458118144
sVCongratulations, Jennifer Lawrence! https://t.co/0HKZZ8tOzb #OscarNoms #Oscars https://t.co/c95U8oKtno
p399
I687639526282498049
sVAmazon's physical store in NYC would offer same-day delivery, pickups and dropoffs. http://t.co/MGsGcG72dC http://t.co/ZT5FMDMSII
p400
I520338188213444608
sVMalaysia Airlines says it lost contact with plane that was flying in Ukrainian airspace http://t.co/0HhXkRPbpN http://t.co/dJjtVyj3uT
p401
I489800427152879616
sVTurkey claims Russian plane violated its airspace and summons ambassador https://t.co/cIvB03dzRZ
p402
I693465666259656705
sVThis Week's Top Story: George Zimmerman Wins Florida State Lottery http://t.co/xlid3Fu4IB
p403
I358591089462099968
sVPaul Kantner, founding member of Jefferson Airplane, dies at 74, publicist says - San Francisco Gate https://t.co/2oQFKSfFUZ
p404
I692881863644282880
sVHappy #NationalHugDay https://t.co/00FYarG8R5
p405
I690145844318834689
sVIf you put an iPhone 6 in your pocket, it may not come out the same shape http://t.co/d5g5pjFruN
p406
I514546272972574721
sVdon't put your iphone 6 in your pocket y'all  http://t.co/pp8UsWwd9k http://t.co/PLXYagARMq
p407
I514512849876836352
sVSomeone trolled Twitter into thinking Macklemore joined ISIS: http://t.co/5iqb5iHE6m http://t.co/rrYQAIPm6M
p408
I568905632998412288
sVDeath toll from #BachaKhanUniAttack rises to at least 19; army official says firing has stopped as campus searched https://t.co/EpDjigPOlN
p409
I689719109785907200
sV#Muslim Arrested in #Texas Today With  #ISIS Flag on Body Armor http://t.co/oHIB3oNXBZ
p410
I509077805296914432
sVClinton: "Every single American should be outraged" by what's happening in Flint, Mich. #nprdebate
p411
I688932211714818048
sVTalking Angela is an app that has been hacked and asks for you personal information. SPREAD THE WORD http://t.co/rs1QaNzjaq
p412
I436001434212249600
sVThe Government's spare room subsidy or #BedroomTax has been declared discriminatory by Court of Appeal judges following two legal challenges
p413
I692290126282649601
sVEstimated 300 tons of contaminated water leaking into Pacific Ocean per day from wrecked #Fukushima nuclear plant http://t.co/fG8BSCizKB
p414
I365056836476481537
sVJust when we thought we couldn't love Steve Carell more, he helps Carol Burnett up to the #SAGAwards stage. \u2764 https://t.co/GO2yrlAM5Z
p415
I693618217667928068
sVA tiny alpine town in northern Italy just welcomed its first baby in 28 years \U0001f37c\U0001f476 https://t.co/6bH9cogtne https://t.co/tQvUw1t73B
p416
I693136527816331264
sVPerson One Season Ahead In TV Show Doling Out Counsel Like Wise Elder https://t.co/5fifdedBB1 https://t.co/btihmXCewL
p417
I693082547664883712
sV#OscarNoms: Nominations for Best Picture https://t.co/0BQs292jxd https://t.co/JbW6ffPEuy
p418
I687632433483759616
sVWhether on the sideline or at a retirement community in NC ...\u000a\u000aJust gotta dab on 'em. (via Piedmont Crossing/FB) https://t.co/lEcs7f2yWx
p419
I692566765822435328
sVZika fever: A newly emerging disease is threatening the Americas https://t.co/edy0wThso8 https://t.co/NGBjQhYlOM
p420
I693711272014155776
sVMichael Jackson told Oprah he doesn't want a white actor playing him in 1993 https://t.co/cjAL30aH9D https://t.co/J6jDvRiJlL
p421
I693411834808946688
sVMaoist cult leader Aravindan Balakrishnan jailed for 23 years for string of sex assaults in London https://t.co/YuFQN46QGw
p422
I693087256727388161
sVPowerful image, yes. But it was drawn by @lucilleclerc, not by Banksy. Details: http://t.co/J4WBazwZF7 #charliehebdo http://t.co/f3OEIDDj1K
p423
I553190393370923008
sVMove! Get Out! Dumbass! Kristen Stewart Trashes our #Military, Defends 9/11 Terrorists http://t.co/NZKE7ah5U9 #tcot http://t.co/Gex6HNZcqH
p424
I521496155310796800
sVWoman who stabbed paedophile to death in east London has three-and-a-half-year jail term more than doubled https://t.co/Nzdqm0qzjA
p425
I690522824797196288
sVPaula Deen moves to have discrimination suit dismissed. Just in time for her new book "How To Cook A Jew".
p426
I352075672543428608
sV"talking angela gets ur personal info"\u000a"he's a kidnapper"\u000a"he watches u through ur camera" http://t.co/dsWJ8nAsgn
p427
I436157173161144321
sVNigerian Islamist group Boko Haram releases video purporting to show kidnapped Chibok schoolgirls https://t.co/lz71j78ENe
p428
I764753085675761664
sVAn afternoon with Bo and Sunny in the snow.\u2744\u000ahttps://t.co/jzsP9vWmAO
p429
I691380348379201536
sVWhite House #shutdown http://t.co/YzBZTMZuJI, but are posting alerts on him getting a sandwich. http://t.co/26SmIdSqLm
p430
I387236601450864641
sVSuicide bomber who killed at least 50 in Turkey was aged 12-14, state-run news agency quotes president as saying. https://t.co/NYwhawfcpE
p431
I767355933919997952
sVMaximum-security inmates just destroyed the Harvard debate team in prison competition.\u000ahttp://t.co/xlh3NJeqW9 http://t.co/2TGmDYtk8X
p432
I651858133304782848
sVBREAKING NEWS: U.S. detects activity in North Korea suggesting plans toward space launch
p433
I692707593991643136
sVPresident Obama\u2019s daughter wears a Pro Era t-shirt: http://t.co/fOwbPDWJMy http://t.co/g9eVez8XRa
p434
I552112474913136641
sVFrom @OTLonESPN: Baylor faces accusations of ignoring sex assault claims against athletes, not supporting victims: https://t.co/fvJ2P3wf8T
p435
I693821069879160832
sVCops swarm #7thHeaven star Stephen Collins' home after suicide report http://t.co/NUrt2jVrWA http://t.co/lZqvlQeV7i
p436
I521533372280369152
sVMiami was desperate for a turnover.\u000a\u000aInstead, NC State got this dunk. And a BIG upset win: https://t.co/frukdiAKjE
p437
I693560600471863296
sVHappy #LeftHandersDay https://t.co/yjitCRIM8o
p438
I764449685897568256
sVSurprise surprise, @SHAQ.\u000a\u000aOn @JimmyKimmelLive, the Lakers icon learned he'd be honored w/ a Staples Center statue. https://t.co/ULVyD0lJoA
p439
I692745208421679104
sV.@onedirection's new music video for "History" is a walk down memory lane: https://t.co/obiL7tWP3S #1DHistoryVideo https://t.co/WUhRjev0V2
p440
I692024256520179712
sVU.S. Navy sends ship near contested island in South China Sea to challenge claims by China, Taiwan and Vietnam. https://t.co/HtIrstrHNg
p441
I693344498953383936
sVPentagon Holds Gala To Celebrate 25 Years Of Bombing Iraq https://t.co/kYzkswR1Eg https://t.co/CV8VgrbVYN
p442
I691380138710306816
sVJust in... @BarackObama &amp; Department of Justice file Federal Charges against #GeorgeZimmerman
p443
I356407105953071107
sVStudy: 90% Of Workplace Injuries Caused By Bare-Knuckle Boxing https://t.co/xdnHQ0ICMN https://t.co/1yTPdBBCss
p444
I692927739066740741
sVUp to 100 masked men, dressed in black, involved in "migrant attack" in Stockholm\u000ahttps://t.co/U1hGutdEqs https://t.co/A4CHZ7n1D3
p445
I693481256735150082
sVwhy did Macklemore delete this tweet!? #MacklemoreJoinedISIS http://t.co/2pronTa31x
p446
I568589712644026368
sVWow. Obama disses stay at home moms. "That\u2019s not a choice we want Americans to make." http://t.co/QohcSEmXr6
p447
I528240834660298753
sVA memorial for #MH17 victims forms near the Netherlands embassy in Kiev: http://t.co/U83G4R5YIp (Roman Pilipey/EPA) http://t.co/3s7t2q4sv2
p448
I489975398151618560
sVA claim that #Obama used the #shutdown to scuttle the Amber Alert system reveals an ignorance about Amber Alerts. http://t.co/Y0KDRHC0wy
p449
I387353560356118528
sVOregon militiamen receive fitting nickname: #YallQaeda https://t.co/dgw4rcUy2q https://t.co/cLur8223lP
p450
I683731779342188545
sVFukushima reactors leaking into groundwater, can't be stopped from getting in ocean, buildings now on mushy land http://t.co/AB6yIJzk7O
p451
I372914976102834176
sV"This is a good day. Once again, we\u2019re seeing what\u2019s possible with strong American diplomacy." \u2014@POTUS #IranDeal https://t.co/yNV26XZmDQ
p452
I688757736310484994
sVPeek behind the curtain of our Save The Americans video.\u000ahttps://t.co/upopJtCFNX
p453
I547509900130021377
sVHere's the passenger breakdown by nationality: http://t.co/q53Gu6FsVq #MH17 http://t.co/ZWudzjAORL
p454
I489968646014246912
sVGreat @Banksy homage to Charlie Hebdo victims: RT @kowalshki: Nice work from Banksy #JeSuisCharlie http://t.co/YPRBYT7fCT
p455
I553016500492439552
sVMike Pence: "When Donald Trump becomes president, we won't be pay ransom to terrorists or terror-sponsoring states." https://t.co/SorH4eK3lv
p456
I767823175480647681
sVExclusive! Angelina Jolie will be a visiting professor at Georgetown University: https://t.co/csL1e6S1eN https://t.co/RkmXvNbPjg
p457
I761675705956655109
sVOne Direction fans have a lot of mixed emotions about Zayn's #Pillowtalk. What do you think? https://t.co/hsP7TKwgir https://t.co/N0I1f5hnwR
p458
I693162950358622208
sV.@POTUS in the Oval Office on a snowy afternoon at the White House. https://t.co/fIbOixFAU9
p459
I690670464440504320
sVMALIA OBAMA WEARS T SHIRT OF AN ANTI WHITE ANTI COP RAP GROUP. #NYPD http://t.co/2fmLyvlIUT #barbaraboxer #RespectForMuslims #blackprivilege
p460
I553271856786968576
sVPaula Deen: "Forget the Food Network. I've already been offered a cooking show on the new Fox News Food Channel."
p461
I348209998565879810
sV#Mexico: doubts grow over the fate of 43 missing students as more bodies found in a mass grave http://t.co/3Kgppjlk71 http://t.co/bIhEpMQj4L
p462
I520630231531802624
sVSomeone spray painted a penis on a $2.4 million Bugatti Veyron: http://t.co/xUiM1ODg7m http://t.co/WZtwXUPsYM
p463
I519867098945044480
sVBanksy's illustrated response to the Charlie Hebdo attack isn't by Banksy. But it is striking http://t.co/NQueBlmfOt http://t.co/HedHlyB24X
p464
I553115236992290816
sVSister \u2764\ufe0f @KylieJenner @kourtneykardash at the #InStyleGlobes bash #GoldenGlobes https://t.co/d03ey1O4MM
p465
I686421576904916992
sVOlder brother of Syrian boy in iconic image dies of injuries from airstrike on family home. https://t.co/FDDVBCO2Av https://t.co/vrUnyWxGVk
p466
I767068504277344260
sV"Ted Cruz is by far the most consistent conservative in that crowd." https://t.co/tbvTjLUfQ9 | AP Photo https://t.co/XbleumEEMV
p467
I691700082601758720
sVHow to raise a creative child\u000a\u000aStep one: back off  https://t.co/Jue9yeyfT0 https://t.co/W7yD2rq7H9
p468
I693554344298467328
sVManager bans teen slang from work including 'chill'. Adds stop accusing people of having Ebola http://t.co/4w9NLa4obN http://t.co/AWVzyPVtcC
p469
I532281981795848192
sVAmerican swimmers who claimed that they were robbed in Rio should apologize to residents, Brazilian police said. https://t.co/KYan0ekP8i
p470
I766358933296517121
sVPope Francis is the real MVP http://t.co/WtKixY0IVt
p471
I547807913671405568
sVGet ready to binge watch - the #GilmoreGirls are coming back, this time to @netflix \u000ahttps://t.co/W32fkBqXaJ https://t.co/UWrnRwAhye
p472
I693456387880402944
sVNHL expansion to Las Vegas is reportedly 'a done deal.' http://t.co/bBSyK04lVl http://t.co/ijEI9lkB6P
p473
I504419526998360064
sV78 were arrested overnight in Ferguson, more than double the total reported by authorities http://t.co/lQXivckQcQ http://t.co/yXsAfeUdqk
p474
I501760566160289794
sVInternet of Things security is so bad, there\u2019s a search engine for sleeping kids https://t.co/jEbK3TGJkT
p475
I690920430287331328
sVSo Ebola was found in hair extensions? All my bitches wear weave \U0001f633
p476
I521663202183348224
sVBernie Sanders and Donald Trump continue to hold wide leads in New Hampshire primary races, CNN/WMUR poll finds. https://t.co/O801Vujdr2
p477
I693934062445187072
sVHarry Potter stars react to the tragic news of Alan Rickman's death: https://t.co/PXYBOVbcPS https://t.co/mWzK4Yh6ly
p478
I687673284436082689
sVHer father shot her in the head, as an "honor killing" https://t.co/EFEwsFE8ca via @nytopinion https://t.co/IeyZD1GPwJ
p479
I693549273468764160
sVWe're keeping Cline Dion in our thoughts--her brother Daniel has died of cancer at age 59: https://t.co/ZDJWFyTrxa https://t.co/WwZj7zySQV
p480
I688437279405305856
sVICYMI: This Wayne Selden dunk was absolutely absurd. https://t.co/m932NAsnyr
p481
I693803472806760448
sVDisney World Opens New Ordeal Kingdom For Family Meltdowns https://t.co/dJoXksfNlg https://t.co/g0YSJMi5Mo
p482
I692127290998784001
sVUkrainian minister says rebels shot down #MH17 Malaysia Airlines plane  http://t.co/a6SHqAWx0Y http://t.co/bQkx3x55EZ
p483
I489798219283857408
sVTop snowfall totals by state #Blizzard2016 https://t.co/GR09ZmLSoU
p484
I691600834707247104
sVBreakfast all around. http://t.co/NqDOn1R68L
p485
I560414522758799361
sVMexico: Iguala mass grave bodies "not all of missing students", Guerrero state governor says\u000ahttp://t.co/pn9V97xXe2 http://t.co/l9zBlsfhr3
p486
I521098692326350848
sV"The typical woman who works full-time still earns 79 cents for every dollar the typical man does." \u2014@POTUS https://t.co/nKeA7ekgfU
p487
I693121477491757056
sVCam Newton and Steph Curry have more in common than just North Carolina.\u000a\u000aHere's proof: https://t.co/cOCvt4qBLy https://t.co/bc31MFVBLs
p488
I693083689098477568
sVObama daughter is not pregnant. Now when Obama get the Internet shut down on some Olivia type time, we all gonna be sick
p489
I539115704285270017
sVYoung people have the power and potential to change the world. Happy #YouthDay! https://t.co/1c3jrHRLy2 https://t.co/a5TOXPn28e
p490
I764158239089029120
sVUkrainian military jet was flying close to #MH17 before it was shot down, says Russian officer\u000ahttp://t.co/QxZEPoVzeE http://t.co/HP03xaHWB2
p491
I491241885399539712
sVDog dies after protecting 8-month-old baby girl from house fire in Baltimore https://t.co/U4GUyqQKMB https://t.co/rLIqCNHbkH
p492
I766719302401613825
sVSeveral in critical condition - one in a coma - after clinical trial of new drug in France, health minister says https://t.co/vAITbqeqUI
p493
I687945926774800385
sVTwo gunmen killed in Pakistan university attack, police say, with reports others still firing  https://t.co/eh1xRB1y5P
p494
I689694470779097088
sVLEO's first SAG. #SAGAwards https://t.co/89HTzWYcin
p495
I693629063932596224
sV#OscarNoms: Nominations for Best Actress in a Leading Role https://t.co/qBBV5Jf4eB https://t.co/cQhLWvvPNh
p496
I687631811560763392
sVReport: Toronto, Seattle, Quebec City to join Vegas in 2017 NHL expansion: http://t.co/Hreb7MZ5RT
p497
I504478567062056962
sVObama files federal charges against George Zimmerman \U0001f64c\U0001f64c\U0001f64c that's MYYYYYYY president! Yaassssss \U0001f64f praise The Lord.
p498
I356297080169447425
sVFlorida woman surgically adds third breast in bid to become reality TV star  http://t.co/Seh6V9xEG3 Via Daily Mail
p499
I514067907475959808
sVAHH!! @jk_rowling has an encyclopedia in the works for #HarryPotter!! &amp; #Pottermore is now OPEN!! :D http://t.co/atIbbx9pCA
p500
I377519445578895360
sVWhy digital companies need more liberal arts majors: Creativity, empathy, and listening are more important than ever https://t.co/yUGBfUqRXS
p501
I693216311502073856
sVNorth Korea media says Kim Jong Un has made appearance after 40+ days missing: http://t.co/B4lQwURLta http://t.co/ir637lT0Wu
p502
I521835345059389440
sVPro-Russian rebel leader in leaked audio: "Cossacks" shot down the plane http://t.co/SnhVouZF4Q #MH17 http://t.co/iWhbnKIlb6
p503
I489867900296368129
sVAmber Alert website, which shows critical missing children bulletins, is offline due to government shutdown http://t.co/ihUkfNM2UZ
p504
I387220814531395584
sV"Every single one of us deserves the rights, freedoms, and opportunities to fulfill our dreams." \u2014@POTUS #Roe43 https://t.co/tpxXvwmUTM
p505
I690567125128351744
sV1 billion young people will start work in the next decade\u2014only 40% in jobs that now exist https://t.co/imljo1jcwn https://t.co/sOZL6joj5t
p506
I693718533239365633
sVThe @WHO sets up Zika "emergency team" after "explosive" spread of the virus https://t.co/kPh1XtN1Wt https://t.co/D9NNo2sJLb
p507
I692692529779707904
sV"We've set the first-ever national standards limiting the amount of carbon pollution power plants" can emit \u2014@POTUS: https://t.co/jCMTjXEnSQ
p508
I764573523713011713
sVQuote of the Day https://t.co/LgOripsSJb https://t.co/6wfGY8vPUs
p509
I693523133920342016
sVA Eulogy For the Show that Changed Kids' TV Forever: #GravityFalls https://t.co/djjK5noHYs https://t.co/yqWbLE1M4f
p510
I699252269414354944
sVHappy birthday, @POTUS! https://t.co/TgQWxfpkOe
p511
I761381302260031489
sVPolice chief investigating #CharlieHebdo reportedly killed himself while preparing report on terror attack... Hmm... http://t.co/VpdQjqHPRr
p512
I554597409351671808
sVHostages taken and people killed in attack on Burkina Faso hotel by militants, foreign minister says https://t.co/za8OdM86ri
p513
I688147918113538049
sVBREAKING: Hollande decides state of emergency for all of France, borders closed. https://t.co/EVwUcmyQdC https://t.co/StBs4OnB1H
p514
I665302351742275584
sVOracle is finally killing, Java. Rest in hell, Java. https://t.co/LGxTxozlDT https://t.co/yh4dqBJkQT
p515
I692734579141185536
sVOfficials say at least 86 people died in the latest attack by Nigeria's homegrown Islamic extremists, Boko Haram https://t.co/sDz94nszJo
p516
I693899062098137088
sVBanksy proves he hasn't been arrested, puts up new piece in Bristol. Take a look here: http://t.co/2lrz2q1fEo http://t.co/naM1IO0BUS
p517
I524317344730869760
sVHere's what @POTUS keeps in his pockets to remind himself of the people he meets along the way. #YouTubeAsksObama https://t.co/d2n2hJeIDj
p518
I688110059553861634
sVAppeal Court judges rule so-called bedroom tax is discriminatory in two cases brought against UK government https://t.co/Y4k4r2robi
p519
I692287441168900097
sVFUKUSHIMA: HIGHLY RADIOACTIVE WATER SEEPING INTO THE OCEAN http://t.co/KrOuYaq4Go
p520
I364589696573124609
sV#Obama says "America Doesn't want any Stay-at-home-Moms! Enough is Enough!  #FireObama Now! http://t.co/fI0VmMvYyw http://t.co/2gPaJS0BFj
p521
I528389559441444864
sVPlease read! Do not purchase Koch Products. They're paying for Zimmerman's attorney fees! http://t.co/wJXuw8NiwK
p522
I357299879070023680
sVIs the truth out there? In nod to @thexfiles, @CIA releases hundreds of declassified docs https://t.co/EbChUJB6iI https://t.co/MDOfdT33Zx
p523
I693236688538243074
sVGOP strategist says Trump supporters are "childless single men who masturbate to anime" https://t.co/0FAyVDBObn https://t.co/4R87d9n1Qw
p524
I689799953330368513
sVTeenage girl 'made up' migrant rape claim that caused uproar in Germany https://t.co/zO5fIH0Ttf
p525
I693806234026188801
sV#DoinTooMuch RT @DahnDahlas: @jemelehill A Chick-fil-A manager banned slang at his location. http://t.co/spC11W6rwL http://t.co/mpM3myWFg3
p526
I532255606623989760
sVReports of an active gunman at San Diego navy medical centre https://t.co/P0BZBQnMX1
p527
I692031224227958789
sV@eonline STARTED FROM THE BOTTOM NOW THE WHOLE TEAM'S HERE. #SAGAwards https://t.co/4iPx28xHz2
p528
I693631772639145984
sVBoko Haram burned children alive in attack on Nigerian village, witness says https://t.co/eNGQTl0muG
p529
I693824042164436992
sVCaitlyn Jenner mourns the loss of Bruce: "Maybe he didn't deserve to be gone." https://t.co/jN2zFxR2Xg https://t.co/7GaCDHgFVt
p530
I687766167558164481
sVReport: Spider https://t.co/Y6HPuulOVJ
p531
I692374052082708480
sVOnce again, JK Rowling is NOT working on an eighth Harry Potter book. I expect this rumour originated from either The Quibbler or Trelawney.
p532
I376874273601630208
sVRIP David Bowie. Can we also RIP the "battle with cancer" cliche? Implies you've "lost" the battle, as if you didn't fight hard enough.
p533
I686527768327274497
sVAn undefeated high school wrestler lost on purpose against an opponent with Down syndrome:  https://t.co/9YaVcfdjKj https://t.co/TZZVivwY3L
p534
I692780496590254081
sV17yr old @KylieJenner says she pregnant by 24yr old rapper @Tyga (Full Video) \u27a1\ufe0f http://t.co/iXJvZUesgj http://t.co/N8NARrgdKQ
p535
I534461459938304001
sVJamie Dornan leaving Fifty Shades of Grey?! Yeah, not so much: http://t.co/kuZwz7MDpv
p536
I570405783306944514
sVSmart people are as racist as less-smart people\u2014but smart enough to hide it: https://t.co/JwjtzX6UaK https://t.co/XyDeGEbVhQ
p537
I690174644071047168
sVEvery summer since taking office, our interns surprised @POTUS with a birthday card. #TBT to the 1st one from 2009: https://t.co/gSGjvndtSa
p538
I761355585724055553
sVMass grave found in Mexico near area where 43 students vanished after a confrontation with police: http://t.co/VJEjgQTbna - @ThisIsFusion
p539
I518981379963777025
sVNEWS Saudi Arabia's national airline planning to introduce gender segregation on flights http://t.co/WgxJ2fOoDQ http://t.co/lWi2JybktW
p540
I551117430345711616
sVSad Man Tears 2 Bananas Off Larger Bunch https://t.co/lPYezFrbvQ https://t.co/e22cOPQERS
p541
I692113839387709444
sVReligious subjugation? U.S. troops  in Bahrain getting Ramadan training. http://t.co/HiMCkmr45O #tcot
p542
I482880640560271361
sVOLYMPICS: Usain Bolt wins 200m gold, staying on track for 3 golds in 3 events at 3 Olympics https://t.co/kd8ZzQab7K https://t.co/Tk8t6LiIsC
p543
I766452700049473536
sVFACT: Up to 129 million Americans with pre-existing conditions can no longer be denied coverage. #ACAWorks https://t.co/N0Cj2QazoF
p544
I691299810553384960
sVWaking up late for pre-game skate in Vegas like... #NHL #Expansion http://t.co/sCf5m2f1jd
p545
I504450741126582275
sVHere's the letter Alan Rickman wrote for us back in 2011, upon completing Harry Potter &amp; The Deathly Hallows: https://t.co/nw6s57GcjI
p546
I687956181646753792
sV.@camilacabello97 played around with @JustinBieber's #LoveYourself and the outcome is absolutely beautiful. https://t.co/1UaZmsagAj
p547
I692364468442021889
sVThis Week In Sports: Bill Belichick Visits Hospital To Watch Terminally Ill Fan Die https://t.co/fafWmgic4X https://t.co/77RFzdyb7U
p548
I691351064868732928
sVIslamic Tribunal using Sharia law in Texas has been confirmed http://t.co/x6GXK8L6XX @BreitbartNews #a4a http://t.co/GzlLVMaX4T
p549
I560187970389819392
sVReport: Breast-feeding increase could save more than 800,000 lives annually https://t.co/0VpIZOmTOy https://t.co/TBR1axSKVe
p550
I693272659447119873
sVA Russian officer  "pushed that button deliberately" &amp; shot down #MH17, Ukrainian gov. says: http://t.co/hoIu7rsytU http://t.co/PXDOG3XL9J
p551
I491591245152935936
sVObama has filed federal charges against Zimmerman for violating Trayvon's civil rights. God is good
p552
I356437941641416705
sVAnd @ABC, please tweet saying that you did not pay or compensate Darren Wilson for the interview in any way. We're waiting. #Ferguson
p553
I538129041539092480
sVSome #WednesdayWisdom from #TheLionKing \U0001f31f https://t.co/EF3W0j6Opy
p554
I692463948076093440
sVJudge issues search warrants, seizure of passports for 2 US swimmers, including Ryan Lochte, around alleged robbery. https://t.co/W1UoF46mQW
p555
I765934198297362432
sVIn a historic first, the International Criminal Court has classified destroying cultural artifacts as a war crime. https://t.co/gFH9XQNN0v
p556
I767710245779103744
sVObama Gently Guides Michelle\u2019s Hand As She Maneuvers Drone Joystick https://t.co/4qqvFTtIgo https://t.co/oFu3je9Ax5
p557
I691791477912014850
sVI feel some type of way. http://t.co/1AT6TiTVGG
p558
I524320261667950592
sVBREAKING: KS patient at risk for Ebola: In strict isolation at KU Med Center in Kansas City http://t.co/VSgf1tlZg6 #KWCH12
p559
I521789009576476673
sVYes, Trump really said, "The whites don't get any nominations" at the BET Awards: https://t.co/UidaTe6pIt https://t.co/zTxj39MzDQ
p560
I689922870689009664
sVUK to accept some child refugees from Syria and other conflict zones but not those who have fled to Europe https://t.co/K7GGAerFbw
p561
I692497796956561408
sVBoeing wins contract to build new Air Force One presidential jets https://t.co/can13F4fjN https://t.co/mUTY25mLKQ
p562
I693284114724700160
sV'Nine Britons, 23 US citizens and 80 children' feared dead after #MH17 jet 'shot down' \u000ahttp://t.co/RZKxYskhg0 http://t.co/N39xopC9G6
p563
I489854703321509888
sVAstronomers say they have confirmed the existence of the galaxy's largest solar system. https://t.co/0tSDvpAipF.
p564
I692537942439501824
sV42 Million Dead In Bloodiest Black Friday Weekend On Record http://t.co/6x1g3oZt
p565
I273278761909239808
sVFukushima \u2013 Toxic Water Leak a Level 3 Serious Incident http://t.co/octZqEZ3vR FUCK YOU TEPCO! FUCKING OCEAN IS BOILING!!! #YAN
p566
I372901260183494656
sV78, not 31, arrested overnight in #Ferguson. http://t.co/AIKQBh8RhU
p567
I501781217411215360
sVCan twerking in Louisiana really get you a "mandatory 30 days in jail"?! http://t.co/IBmy5Qt3WB
p568
I380140114552188928
sVNew dog-ma? Pope says heaven is for hounds, too\u000a http://t.co/iR0vdWpvDv http://t.co/jgxF2cURtt
p569
I543586319168196608
sVI'm sorry, but I can't do anything today because I'll be watching #Pillowtalk on repeat: https://t.co/hS0ECEm5pt https://t.co/0Tz8n2Q4WQ
p570
I693079616072880128
sVBREAKING: Malaysian Airlines passenger 'shot down' near Russian border in Ukraine http://t.co/3jyElNr8Gw http://t.co/TLOAZYaDgf
p571
I489794369487380480
sVSome iPhone 6 Plus Owners Accidentally Bending Their iPhones in Pockets http://t.co/t36o1aZ7kI by @kellyhodgkins
p572
I514429381737852929
sVA list of overnight arrests in Ferguson shows a much higher number than officials reported http://t.co/wPM27MbWBf http://t.co/bWwltP9n5I
p573
I501768276523761666
sVDETAILS: Radioactive water from under #Fukushima has risen 60cm above protective barrier, freely leaking to ocean http://t.co/Xo52wsDjeN
p574
I366205297557110784
sV'Who is we?' Obama says being a stay-at-home mom 'not a choice we want Americans to make' http://t.co/757kp9HEyJ
p575
I528341588867416064
sVPoll: Five percent of Americans would vote Harambe the dead ape for President https://t.co/CddlGnQp9o https://t.co/wCGISxIB9w
p576
I759653274605740032
sVRetreating Clinton Campaign Torches Iowa Town To Slow Advance Of Sanders Volunteers https://t.co/77hKZKZ22m https://t.co/9GvydAjmOt
p577
I693139276708585472
sV15 year old "swatter" got 25 years http://t.co/g1V3Iuitee
p578
I505657661120348163
sV"As the Affordable Care Act has taken effect, nearly 18 million Americans have gained coverage" \u2014@POTUS https://t.co/N0Cj2QazoF
p579
I690926324903317504
sVThis powerful cartoon about the Charlie Hebdo attack is not by Banksy\u000ahttp://t.co/F6cNaivqCS http://t.co/ZrIUn6O8nS
p580
I553115168084074497
sV"America is a nation of second chances" \u2014@POTUS on new reforms to solitary confinement: https://t.co/0G7tIBFkeh https://t.co/c7yZWsUG4c
p581
I691809004356501505
sVDonald Trump spokesperson decried lack of "pure breeds" running for president https://t.co/0JuqpcWtxQ https://t.co/VV9pzAa8lv
p582
I691027026552229888
sVPenis graffiti  drawn on 1.5m Bugatti Veyron.\u000a\u000ahttp://t.co/dAY74sPOpk http://t.co/dgHNkKsrjT
p583
I520132836594970625
sVMalaysia Airlines plane MH17 'Shot down in Ukraine near Russian border' http://t.co/M2RTcNT9Nh http://t.co/BrH12S5TVy
p584
I489798752358916096
sVAl-Shabab militants overrun African Union base in Somalia, amid unconfirmed claims of dozens of soldiers killed https://t.co/3AVPrzMAdu
p585
I687911282922631168
sVForty percent of Germans want Angela Merkel to resign over her refugee policy, poll shows: https://t.co/69UhE6iKMH https://t.co/nBTPaIgS7K
p586
I693122199536934912
sVTalk times @ 2nd brk\u000aCruz 13:18\u000aRubio 12:01\u000aTrump 10:30\u000aPaul 9:00\u000aChristie 8:39\u000aBush 8:27\u000aKasich 8:21\u000aCarson 7:55\u000aFiorina 7:27\u000a#nprdebate
p587
I676970570160988160
sVThe iPhone 6 Plus really does have a bending problem http://t.co/HejimYCNB2 http://t.co/vfGwQYHaqV
p588
I514540926640087040
sV"One day, we will see our animals again in the eternity of Christ," Pope Francis said to a boy whose dog died http://t.co/pzMrdD7ZzA
p589
I543443188934250496
sVFukushima nuclear plant leaking 300 tons of radioactive water into the Pacific every day: http://t.co/sZi810gMCO
p590
I369506008172740608
sVFrom the vault: Anatomical maquettes of fanciful creatures https://t.co/dES1rPM1uV https://t.co/hMhGvBEZyT
p591
I691667941314662400
sVWe are running out of chocolate, warns world's largest chocolate manufacturer\u000ahttp://t.co/8zL3r8VdOh http://t.co/QCp0yIjB4o
p592
I534392174876839936
sVThe Bank of Japan introduces negative interest rates to counter the ongoing economic slump, in a surprise move. https://t.co/fDXGuONXGp
p593
I692922211338981377
sVThis doesn't help our score, @IanMcKellen! Are you Team #Batman or Team #Superman? Let us know with '#EmpireBvS'. https://t.co/3Csj5Qr3mQ
p594
I692816955837804544
sVJapan: Fukushima nuclear plant is leaking 80,000 gallons of radioactive water into ocean daily. http://t.co/S1mqmSTJcY
p595
I365276206381268995
sVA city in Louisiana has made "twerking" illegal, imposing a punishment of 30 days in jail for a first offense
p596
I380055172896272384
sVRaven Symone BLASTS Bill Cosby rape story http://t.co/oMYArVJ4QA http://t.co/504iJWKtZi
p597
I535252460148113409
sVJoseph Pena is 17. Joseph Pena is in high school. Joseph Pena can squat 875(!) pounds.\u000a\u000aWATCH: https://t.co/gZ6Axav3Wf
p598
I693091255685787648
sV"This ball feels a little flat to me!"\u000a\u000aICYMI: Von Miller joked about the Patriots football he intercepted: https://t.co/vJrmndE8EF
p599
I692727606718824448
sVUK Home Secretary Theresa May says Litvinenko's murder was "blatant and unacceptable" breach of international law https://t.co/OqwlDJaM5q
p600
I690137637810761728
sV#Sweden's Interior Minister says the country intends to expel up to 80,000 migrants whose applications for asylum have been rejected
p601
I692491478619262976
sVFacebook Spies on You For The Government: http://t.co/kDd0AQV4Zw
p602
I540643709465812992
sVThe story of a 17-year-old stock whiz with a rumored net worth of $72 million made a splash, but quickly unraveled. http://t.co/lt7ZveyFwt
p603
I544698560655400961
sVBaseball players had "fight club" at Texas high school, investigation finds: https://t.co/k377T5lfJr https://t.co/GZZ1Glo3UT
p604
I693490132440129536
sVCurrently Boycotting Walmart &amp; Sam's on w. Florissant they donated 10,000 to Darren Wilson!!!!!! Cars are turning around!  #Fergusonoctober
p605
I523535962962280448
sVA Florida woman had surgery to give herself a third boob: http://t.co/ssLtpxtIcB http://t.co/JHTKFnEnhU
p606
I514081464171102208
sVNo evidence found of gunfire at Naval Medical Center San Diego, but building search continues, military says. https://t.co/bjFvcb677b
p607
I692056985513123840
sVThe real takeaway from the #GOPDebate? This Ted Cruz snub. https://t.co/WmUALKq4JD
p608
I692924229017309184
sVA Chick-fil-A manager allegedly banned this hilarious list of slang words http://t.co/0d14In6e1X http://t.co/MMvSEl6rdq
p609
I532206910796468224
sVActor Abe Vigoda, known for roles in 'The Godfather' and 'Barney Miller,' has died. https://t.co/RBfmAPRqDw. https://t.co/dOi64vr7Qb
p610
I692105324111761408
sVVery helpful to know that not only was douche Harvard prof Ben Edelman a racist, but his students were, too==&gt; http://t.co/odTJ3JgjP2
p611
I542860306603868160
sVThe world is running out of chocolate, world\u2019s largest chocolate manufacturer warns http://t.co/uCAYmSiwtb http://t.co/tuyQwUpboF
p612
I534763214106820608
sVMalaysia Airlines executive releases partial list of passengers' nationalities: http://t.co/WbRwJCmzVx http://t.co/KD2yo06uWR #MH17
p613
I489887806018183168
sVHome. https://t.co/Vd9mpLe8pP
p614
I692925163994796033
sVFukushima's new looming crisis: Radioactive groundwater seeping toward Pacific Ocean, @mariyamaguchi reports: http://t.co/z7w6wA8v9W -JM
p615
I370855596050108416
sVRT the good news: We're taking new steps to advance #EqualPay for women \u2192 https://t.co/8UoDjb2bkO\u000ahttps://t.co/Kam2Wp4BJY
p616
I693102420688121856
sVStephen Curry is taking\u2014and making\u2014more absurdly long 3-pointers than ever. https://t.co/sq44AScn3T via @WSJSports https://t.co/69R7JvmOBy
p617
I693658242044542976
sVBanksy shares simple but beautiful tribute to Charlie Hebdo cartoonists http://t.co/Q7qjsgOKB9 http://t.co/D5PEFmEgtC
p618
I553008832784642048
sVWhere is Michelle Obama\u2019s Hashtag for Meriam Ibrahim? She\u2019s Pregnant and Sentenced to Die  http://t.co/JvK88OGOxS http://t.co/6dNF9IdUPr
p619
I470025166760980483
sVThat old "Banksy arrested" hoax is back. Don't buy into it. http://t.co/0kf9RugmVf
p620
I524211911668543488
sVChanging jobs? \u000aGoing back to school? \u000aSmall business owner?\u000a\u000aHere's how the Affordable Care Act is working for you. https://t.co/N0Cj2QazoF
p621
I691006265137299456
sV'Do you know me? Do you know my heart?' Muslims in New York share their experiences https://t.co/eNWDs7ukdy https://t.co/15lJgymCnb
p622
I675434959939756032
sVChick-fil-A manager reportedly bans list of unprofessional words, Internet erupts: http://t.co/FhpL8ufr5E http://t.co/qzd8vxaIcH
p623
I532259028152246272
sVBREAKING NEWS:\u000a\u000aDurex has NOT come out with a pumpkin spice condom\u000ahttp://t.co/QPeMgaYUOY http://t.co/pCE4tFofw8
p624
I509031495101874176
sVGerman forest ranger finds that trees have social networks, too https://t.co/QnXNZDaWjj https://t.co/yhATPYePSb
p625
I693822949456007169
sVNo, Internet, Betty White is not dead http://t.co/JWTeHwb5D7 (Photo: Getty) http://t.co/WblIc4xSDR
p626
I507454543169617920
sVA list of overnight arrests in Ferguson shows a much higher number than officials reported http://t.co/mOhbVWxrcD http://t.co/Hmsc4XlDKz
p627
I501774251901198336
sVIrritated Chick-fil-A manager makes a list of teen slang his employees are forbidden to use http://t.co/B9fd6Z7YSw http://t.co/rMQn2s5RL0
p628
I532284831783460864
sVAt least 39 migrants, including children, drown as boat sinks between Turkey &amp; Greece https://t.co/axYKjD5lqi https://t.co/jfJaMVK3XR
p629
I693476901772513280
sVWe've only got one planet. Watch @POTUS share the progress we've made to protect it. #ActOnClimate https://t.co/jCMTjXEnSQ
p630
I764473554431725568
sVWHAT? RT @70torinoman: Walmart donates $10,000 to support Darren Wilson  #Ferguson #BoycottWalmart  http://t.co/atyetzsK86
p631
I523566838958284801
sVTaliban says it is behind #BachaKhanUniAttack that left at least 19 dead, Pakistani media report https://t.co/EpDjigPOlN
p632
I689722724470620161
sVDEADLINE: If you don't have health insurance, you've only got one more day to #GetCovered: https://t.co/5zeR2RPWAE https://t.co/HsibZ6l1u3
p633
I693594331735683072
sVPresident of Argentina adopts Jewish godson to 'stop him turning into a werewolf' http://t.co/KzLymDtSLf http://t.co/lhHuimKHtB
p634
I549124560793374720
sVNon-essential services shutdown? Can someone explain to me how http://t.co/anrf4KweoX is essential while http://t.co/EXaTOWrdTV is not?
p635
I387030572779847680
sVSubaru gets snowbound police back on patrol. #dontletwinterwin\u000ahttps://t.co/Ck2tk9kpQG
p636
I547158281005719552
sVNonwhite actors nearly swept every nominated category at the #SAGAwards https://t.co/bu2ZWnLwDc https://t.co/EKaR0qPWVh
p637
I693643778033344512
sVWhat was your favorite moment from this week's #TeenWolf? Watch + let me know: https://t.co/2WWub0HqZ7 https://t.co/rK4V9AaESX
p638
I693509689418588160
sVTRAGIC: Nearly 70 people died at a funeral after drinking contaminated beer: http://t.co/oo2C9iolU3 http://t.co/8a1fsc02ku
p639
I554688527435563008
sV.@DanaPerino\u200b: "If I were in... legal trouble, I would call @HillaryClinton to find out how do you get out of it."\u000ahttps://t.co/mBI6wavr3S
p640
I693573042111270912
sVNinety took drug in French clinical trial that left one brain-dead and five more hospitalised, health minister says https://t.co/1rSZFSDFDQ
p641
I688027085730897921
sVLIVE: Follow the #NYE2016 celebrations around the world. Currently live from Sydney: https://t.co/ffRb2iozmL https://t.co/GZ2aTyxJUN
p642
I682548344690970624
sVSuspected suicide car bomb blast near Russian embassy in Afghan capital, Kabul - reports https://t.co/FYG4OLx3Vk
p643
I689798164287741953
sVSure, first you dump Pluto by calling it a dwarf planet, then you drive by its house to make sure it\u2019s not dating any other solar systems.
p644
I621025025806577664
sVJudd Nelson didn't die last night. He sent us this photo to debunk the rumor. http://t.co/FrIUzW4VmV http://t.co/OjuBPgnutt
p645
I526459255147491328
sVUkraine officials say Malaysian jet was shot down by a Buk missile system http://t.co/9Lj2UD8Nrx #MH17 http://t.co/vybsJrZrRL
p646
I489974591985840128
sVIf Darren Wilson was paid by @ABC it would be a painful reminder that destroying black life remains profitable in America. #Ferguson
p647
I538729383662338049
sVBarack Obama has DOJ shut down the Amber Alert system...So, we can add dead kids to the lengths he's is willing to go in his shutdown game.
p648
I387006553124896768
sV.@POTUS announces new rule aimed to advance #EqualPay https://t.co/sd6thtedod https://t.co/ahVVZiWNqd
p649
I693123067204243456
sVA rare white giraffe has been spotted in Tanzania... perhaps the only one in the world. https://t.co/rMP9N9UJCt https://t.co/3CeJtLTfI9
p650
I691976624665919488
sVThe 17 #TheXFiles episodes to watch before it returns https://t.co/UNb8HoaJqr @thexfiles @GillianA @davidduchovny https://t.co/iPMLnoMhaz
p651
I678277910537588737
sVNBC: arrest records show #Ferguson cops jailed twice as many people last night as they originally claimed. http://t.co/ECPa6bJ3KT
p652
I501785003144273921
sVCONFIRMED: Jamie Dornan NOT leaving Fifty Shades of Grey #FiftyShades #JamieDornan http://t.co/bSfV8zT6j2 http://t.co/Y6sHkKHlb9
p653
I570341828479725570
sVMexican president Pena Nieto plagiarized law thesis, report says https://t.co/bIFmgn0NYq https://t.co/eQbN2ppxTZ
p654
I767580827513397252
sVWhen you spend the whole day thinking it's Friday, but it's not... https://t.co/YV6d3bfSZq
p655
I692838349036326912
sVOLYMPICS: US women win 6th straight 4x400M-relay gold, giving Allyson Felix 6 career golds. https://t.co/POH8mKLJtK https://t.co/scXKHxU1W8
p656
I767170849472405508
sVBoko Haram ceasefire includes release of 200+ #BringBackOurGirls hostages, Nigerian government says http://t.co/VoTifKs8nf
p657
I523123779124600833
sVWalmart donates $10,000 to support Darren Wilson, but won't give Tracy Morgan a penny for the accident their company caused. #BoycottWalmart
p658
I523558773345255424
sVOregon domestic terrorists now destroying public property in earnest https://t.co/brFl1qO41d https://t.co/5eo7WGMCrA
p659
I688763099298529280
sVJack White and Avett Brothers premiered a six-part music doc at #Sundance. Our report https://t.co/WRa0rJ63qr https://t.co/fh0RGyyWkv
p660
I693140568143220736
sVTraffic Camera Accidentally Snaps Beautiful Photo of a Snowy Owl \u2014 https://t.co/n8Vvk1uERJ https://t.co/LchrOWg4p2
p661
I685232704774787072
sViPhone 6 users report that their phones are bending in their pockets... lol. http://t.co/kqdNHRGffv http://t.co/ohr2WgwwrG
p662
I514483762566922240
sVThe world is running out of chocolate, world\u2019s largest chocolate manufacturer warns http://t.co/uCAYmSiwtb http://t.co/0OSZHFkv4e
p663
I534678919656775680
sVIrish and European IOC chief Patrick Hickey arrested in Rio over illegal Olympic ticket sales, Brazil media report https://t.co/Yd7Fl25dvC
p664
I765863022506151937
sVHigh school student reportedly makes 72 million on stock market. http://t.co/HLUUGj7Lxg @wallstreet @StuyvesantHigh http://t.co/VpfbVdTSWS
p665
I544567299102244864
sVFor just $1 you can get a free Jr. Frosty with every 2015 purchase! Get a Frosty Key tag now &amp; help support @DTFA. http://t.co/dR7QOxN2eL
p666
I560474897013415936
sVStephen Collins -- Cops Swarm Home After Suicide Report ... False Alarm http://t.co/pMVRo6t7uV
p667
I519704006826807296
sVIraq executes 36 jihadists over 2014 massacre of up to 1,700 army recruits at Camp Speicher https://t.co/J9XXeD7dWV
p668
I767300637012951040
sVExtraordinarily sad news. The Guardian is reporting that the great Alan Rickman has died at the age of 69. https://t.co/K2kBMyziXx
p669
I687617323235147776
sVEx-President of El Salvador, Francisco Flores, dies at 56, government says. https://t.co/8JWfN7lHvB https://t.co/Rewz03Dau0
p670
I693696168908423168
s.